                              1 
                              2 ;;; gcc for m6809 : Feb 15 2016 21:40:10
                              3 ;;; 4.3.6 (gcc6809)
                              4 ;;; ABI version 1
                              5 ;;; -mint8
                              6 	.module	enemy.c
                              7 	.globl _MAX_LEVELS
                              8 	.area .text
   0000                       9 _MAX_LEVELS:
   0000 05                   10 	.byte	5
                             11 	.globl _waveData
   0001                      12 _waveData:
   0001 01                   13 	.byte	1
   0002 01                   14 	.byte	1
   0003 01                   15 	.byte	1
   0004 00                   16 	.byte	0
   0005 9C                   17 	.byte	-100
   0006 32                   18 	.byte	50
   0007 00                   19 	.byte	0
   0008 FF                   20 	.byte	-1
   0009 0A                   21 	.byte	10
   000A 05                   22 	.byte	5
   000B 00 00                23 	.word	0	;skip space 28
   000D 00 00                24 	.word	0	;skip space 26
   000F 00 00                25 	.word	0	;skip space 24
   0011 00 00                26 	.word	0	;skip space 22
   0013 00 00                27 	.word	0	;skip space 20
   0015 00 00                28 	.word	0	;skip space 18
   0017 00 00                29 	.word	0	;skip space 16
   0019 00 00                30 	.word	0	;skip space 14
   001B 00 00                31 	.word	0	;skip space 12
   001D 00 00                32 	.word	0	;skip space 10
   001F 00 00                33 	.word	0	;skip space 8
   0021 00 00                34 	.word	0	;skip space 6
   0023 00 00                35 	.word	0	;skip space 4
   0025 00 00                36 	.word	0	;skip space 2
   0027 00 00                37 	.word	0	;skip space 72
   0029 00 00                38 	.word	0	;skip space 70
   002B 00 00                39 	.word	0	;skip space 68
   002D 00 00                40 	.word	0	;skip space 66
   002F 00 00                41 	.word	0	;skip space 64
   0031 00 00                42 	.word	0	;skip space 62
   0033 00 00                43 	.word	0	;skip space 60
   0035 00 00                44 	.word	0	;skip space 58
   0037 00 00                45 	.word	0	;skip space 56
   0039 00 00                46 	.word	0	;skip space 54
   003B 00 00                47 	.word	0	;skip space 52
   003D 00 00                48 	.word	0	;skip space 50
   003F 00 00                49 	.word	0	;skip space 48
   0041 00 00                50 	.word	0	;skip space 46
   0043 00 00                51 	.word	0	;skip space 44
   0045 00 00                52 	.word	0	;skip space 42
   0047 00 00                53 	.word	0	;skip space 40
   0049 00 00                54 	.word	0	;skip space 38
   004B 00 00                55 	.word	0	;skip space 36
   004D 00 00                56 	.word	0	;skip space 34
   004F 00 00                57 	.word	0	;skip space 32
   0051 00 00                58 	.word	0	;skip space 30
   0053 00 00                59 	.word	0	;skip space 28
   0055 00 00                60 	.word	0	;skip space 26
   0057 00 00                61 	.word	0	;skip space 24
   0059 00 00                62 	.word	0	;skip space 22
   005B 00 00                63 	.word	0	;skip space 20
   005D 00 00                64 	.word	0	;skip space 18
   005F 00 00                65 	.word	0	;skip space 16
   0061 00 00                66 	.word	0	;skip space 14
   0063 00 00                67 	.word	0	;skip space 12
   0065 00 00                68 	.word	0	;skip space 10
   0067 00 00                69 	.word	0	;skip space 8
   0069 00 00                70 	.word	0	;skip space 6
   006B 00 00                71 	.word	0	;skip space 4
   006D 00 00                72 	.word	0	;skip space 2
   006F 02                   73 	.byte	2
   0070 02                   74 	.byte	2
   0071 01                   75 	.byte	1
   0072 00                   76 	.byte	0
   0073 00                   77 	.byte	0
   0074 64                   78 	.byte	100
   0075 00                   79 	.byte	0
   0076 FF                   80 	.byte	-1
   0077 0A                   81 	.byte	10
   0078 05                   82 	.byte	5
   0079 00 00                83 	.word	0	;skip space 28
   007B 00 00                84 	.word	0	;skip space 26
   007D 00 00                85 	.word	0	;skip space 24
   007F 00 00                86 	.word	0	;skip space 22
   0081 00 00                87 	.word	0	;skip space 20
   0083 00 00                88 	.word	0	;skip space 18
   0085 00 00                89 	.word	0	;skip space 16
   0087 00 00                90 	.word	0	;skip space 14
   0089 00 00                91 	.word	0	;skip space 12
   008B 00 00                92 	.word	0	;skip space 10
   008D 00 00                93 	.word	0	;skip space 8
   008F 00 00                94 	.word	0	;skip space 6
   0091 00 00                95 	.word	0	;skip space 4
   0093 00 00                96 	.word	0	;skip space 2
   0095 02                   97 	.byte	2
   0096 00                   98 	.byte	0
   0097 64                   99 	.byte	100
   0098 64                  100 	.byte	100
   0099 FF                  101 	.byte	-1
   009A FF                  102 	.byte	-1
   009B 0A                  103 	.byte	10
   009C 05                  104 	.byte	5
   009D 00                  105 	.byte	0
   009E 9C                  106 	.byte	-100
   009F 9C                  107 	.byte	-100
   00A0 02                  108 	.byte	2
   00A1 02                  109 	.byte	2
   00A2 0A                  110 	.byte	10
   00A3 05                  111 	.byte	5
   00A4 00 00               112 	.word	0	;skip space 21
   00A6 00 00               113 	.word	0	;skip space 19
   00A8 00 00               114 	.word	0	;skip space 17
   00AA 00 00               115 	.word	0	;skip space 15
   00AC 00 00               116 	.word	0	;skip space 13
   00AE 00 00               117 	.word	0	;skip space 11
   00B0 00 00               118 	.word	0	;skip space 9
   00B2 00 00               119 	.word	0	;skip space 7
   00B4 00 00               120 	.word	0	;skip space 5
   00B6 00 00               121 	.word	0	;skip space 3
   00B8 00                  122 	.byte	0	;skip space
   00B9 00 00               123 	.word	0	;skip space 36
   00BB 00 00               124 	.word	0	;skip space 34
   00BD 00 00               125 	.word	0	;skip space 32
   00BF 00 00               126 	.word	0	;skip space 30
   00C1 00 00               127 	.word	0	;skip space 28
   00C3 00 00               128 	.word	0	;skip space 26
   00C5 00 00               129 	.word	0	;skip space 24
   00C7 00 00               130 	.word	0	;skip space 22
   00C9 00 00               131 	.word	0	;skip space 20
   00CB 00 00               132 	.word	0	;skip space 18
   00CD 00 00               133 	.word	0	;skip space 16
   00CF 00 00               134 	.word	0	;skip space 14
   00D1 00 00               135 	.word	0	;skip space 12
   00D3 00 00               136 	.word	0	;skip space 10
   00D5 00 00               137 	.word	0	;skip space 8
   00D7 00 00               138 	.word	0	;skip space 6
   00D9 00 00               139 	.word	0	;skip space 4
   00DB 00 00               140 	.word	0	;skip space 2
   00DD 03                  141 	.byte	3
   00DE 03                  142 	.byte	3
   00DF 03                  143 	.byte	3
   00E0 00                  144 	.byte	0
   00E1 64                  145 	.byte	100
   00E2 64                  146 	.byte	100
   00E3 FF                  147 	.byte	-1
   00E4 FF                  148 	.byte	-1
   00E5 0A                  149 	.byte	10
   00E6 05                  150 	.byte	5
   00E7 00                  151 	.byte	0
   00E8 00                  152 	.byte	0
   00E9 64                  153 	.byte	100
   00EA 00                  154 	.byte	0
   00EB FF                  155 	.byte	-1
   00EC 0A                  156 	.byte	10
   00ED 05                  157 	.byte	5
   00EE 00                  158 	.byte	0
   00EF 64                  159 	.byte	100
   00F0 00                  160 	.byte	0
   00F1 FF                  161 	.byte	-1
   00F2 00                  162 	.byte	0
   00F3 0A                  163 	.byte	10
   00F4 05                  164 	.byte	5
   00F5 00 00               165 	.word	0	;skip space 14
   00F7 00 00               166 	.word	0	;skip space 12
   00F9 00 00               167 	.word	0	;skip space 10
   00FB 00 00               168 	.word	0	;skip space 8
   00FD 00 00               169 	.word	0	;skip space 6
   00FF 00 00               170 	.word	0	;skip space 4
   0101 00 00               171 	.word	0	;skip space 2
   0103 01                  172 	.byte	1
   0104 00                  173 	.byte	0
   0105 64                  174 	.byte	100
   0106 64                  175 	.byte	100
   0107 FF                  176 	.byte	-1
   0108 FF                  177 	.byte	-1
   0109 0A                  178 	.byte	10
   010A 05                  179 	.byte	5
   010B 00 00               180 	.word	0	;skip space 28
   010D 00 00               181 	.word	0	;skip space 26
   010F 00 00               182 	.word	0	;skip space 24
   0111 00 00               183 	.word	0	;skip space 22
   0113 00 00               184 	.word	0	;skip space 20
   0115 00 00               185 	.word	0	;skip space 18
   0117 00 00               186 	.word	0	;skip space 16
   0119 00 00               187 	.word	0	;skip space 14
   011B 00 00               188 	.word	0	;skip space 12
   011D 00 00               189 	.word	0	;skip space 10
   011F 00 00               190 	.word	0	;skip space 8
   0121 00 00               191 	.word	0	;skip space 6
   0123 00 00               192 	.word	0	;skip space 4
   0125 00 00               193 	.word	0	;skip space 2
   0127 03                  194 	.byte	3
   0128 00                  195 	.byte	0
   0129 9C                  196 	.byte	-100
   012A 32                  197 	.byte	50
   012B 02                  198 	.byte	2
   012C FF                  199 	.byte	-1
   012D 32                  200 	.byte	50
   012E 05                  201 	.byte	5
   012F 00                  202 	.byte	0
   0130 64                  203 	.byte	100
   0131 00                  204 	.byte	0
   0132 FF                  205 	.byte	-1
   0133 00                  206 	.byte	0
   0134 32                  207 	.byte	50
   0135 05                  208 	.byte	5
   0136 00                  209 	.byte	0
   0137 9C                  210 	.byte	-100
   0138 00                  211 	.byte	0
   0139 01                  212 	.byte	1
   013A 00                  213 	.byte	0
   013B 32                  214 	.byte	50
   013C 05                  215 	.byte	5
   013D 00 00               216 	.word	0	;skip space 14
   013F 00 00               217 	.word	0	;skip space 12
   0141 00 00               218 	.word	0	;skip space 10
   0143 00 00               219 	.word	0	;skip space 8
   0145 00 00               220 	.word	0	;skip space 6
   0147 00 00               221 	.word	0	;skip space 4
   0149 00 00               222 	.word	0	;skip space 2
   014B 04                  223 	.byte	4
   014C 03                  224 	.byte	3
   014D 03                  225 	.byte	3
   014E 00                  226 	.byte	0
   014F 64                  227 	.byte	100
   0150 64                  228 	.byte	100
   0151 FF                  229 	.byte	-1
   0152 FF                  230 	.byte	-1
   0153 0A                  231 	.byte	10
   0154 05                  232 	.byte	5
   0155 00                  233 	.byte	0
   0156 00                  234 	.byte	0
   0157 64                  235 	.byte	100
   0158 00                  236 	.byte	0
   0159 FF                  237 	.byte	-1
   015A 0A                  238 	.byte	10
   015B 05                  239 	.byte	5
   015C 00                  240 	.byte	0
   015D 64                  241 	.byte	100
   015E 00                  242 	.byte	0
   015F FF                  243 	.byte	-1
   0160 00                  244 	.byte	0
   0161 0A                  245 	.byte	10
   0162 05                  246 	.byte	5
   0163 00 00               247 	.word	0	;skip space 14
   0165 00 00               248 	.word	0	;skip space 12
   0167 00 00               249 	.word	0	;skip space 10
   0169 00 00               250 	.word	0	;skip space 8
   016B 00 00               251 	.word	0	;skip space 6
   016D 00 00               252 	.word	0	;skip space 4
   016F 00 00               253 	.word	0	;skip space 2
   0171 04                  254 	.byte	4
   0172 00                  255 	.byte	0
   0173 64                  256 	.byte	100
   0174 64                  257 	.byte	100
   0175 FF                  258 	.byte	-1
   0176 FF                  259 	.byte	-1
   0177 0A                  260 	.byte	10
   0178 05                  261 	.byte	5
   0179 00                  262 	.byte	0
   017A 32                  263 	.byte	50
   017B 64                  264 	.byte	100
   017C FF                  265 	.byte	-1
   017D FE                  266 	.byte	-2
   017E 0A                  267 	.byte	10
   017F 05                  268 	.byte	5
   0180 00                  269 	.byte	0
   0181 00                  270 	.byte	0
   0182 64                  271 	.byte	100
   0183 00                  272 	.byte	0
   0184 FF                  273 	.byte	-1
   0185 0A                  274 	.byte	10
   0186 05                  275 	.byte	5
   0187 00                  276 	.byte	0
   0188 64                  277 	.byte	100
   0189 00                  278 	.byte	0
   018A FF                  279 	.byte	-1
   018B 00                  280 	.byte	0
   018C 0A                  281 	.byte	10
   018D 05                  282 	.byte	5
   018E 00 00               283 	.word	0	;skip space 7
   0190 00 00               284 	.word	0	;skip space 5
   0192 00 00               285 	.word	0	;skip space 3
   0194 00                  286 	.byte	0	;skip space
   0195 05                  287 	.byte	5
   0196 00                  288 	.byte	0
   0197 9C                  289 	.byte	-100
   0198 32                  290 	.byte	50
   0199 02                  291 	.byte	2
   019A FF                  292 	.byte	-1
   019B 32                  293 	.byte	50
   019C 0A                  294 	.byte	10
   019D 00                  295 	.byte	0
   019E 64                  296 	.byte	100
   019F 00                  297 	.byte	0
   01A0 FF                  298 	.byte	-1
   01A1 00                  299 	.byte	0
   01A2 32                  300 	.byte	50
   01A3 0A                  301 	.byte	10
   01A4 00                  302 	.byte	0
   01A5 9C                  303 	.byte	-100
   01A6 00                  304 	.byte	0
   01A7 01                  305 	.byte	1
   01A8 00                  306 	.byte	0
   01A9 32                  307 	.byte	50
   01AA 0A                  308 	.byte	10
   01AB 00                  309 	.byte	0
   01AC 64                  310 	.byte	100
   01AD 00                  311 	.byte	0
   01AE FE                  312 	.byte	-2
   01AF 00                  313 	.byte	0
   01B0 32                  314 	.byte	50
   01B1 0A                  315 	.byte	10
   01B2 00                  316 	.byte	0
   01B3 CE                  317 	.byte	-50
   01B4 9C                  318 	.byte	-100
   01B5 01                  319 	.byte	1
   01B6 02                  320 	.byte	2
   01B7 32                  321 	.byte	50
   01B8 0A                  322 	.byte	10
   01B9 05                  323 	.byte	5
   01BA 03                  324 	.byte	3
   01BB 04                  325 	.byte	4
   01BC 00                  326 	.byte	0
   01BD 9C                  327 	.byte	-100
   01BE 9C                  328 	.byte	-100
   01BF 01                  329 	.byte	1
   01C0 01                  330 	.byte	1
   01C1 0A                  331 	.byte	10
   01C2 05                  332 	.byte	5
   01C3 00                  333 	.byte	0
   01C4 9C                  334 	.byte	-100
   01C5 64                  335 	.byte	100
   01C6 01                  336 	.byte	1
   01C7 FF                  337 	.byte	-1
   01C8 0A                  338 	.byte	10
   01C9 05                  339 	.byte	5
   01CA 00                  340 	.byte	0
   01CB 64                  341 	.byte	100
   01CC 9C                  342 	.byte	-100
   01CD FF                  343 	.byte	-1
   01CE 01                  344 	.byte	1
   01CF 0A                  345 	.byte	10
   01D0 05                  346 	.byte	5
   01D1 00                  347 	.byte	0
   01D2 64                  348 	.byte	100
   01D3 64                  349 	.byte	100
   01D4 FF                  350 	.byte	-1
   01D5 FF                  351 	.byte	-1
   01D6 0A                  352 	.byte	10
   01D7 05                  353 	.byte	5
   01D8 00 00               354 	.word	0	;skip space 7
   01DA 00 00               355 	.word	0	;skip space 5
   01DC 00 00               356 	.word	0	;skip space 3
   01DE 00                  357 	.byte	0	;skip space
   01DF 04                  358 	.byte	4
   01E0 00                  359 	.byte	0
   01E1 00                  360 	.byte	0
   01E2 64                  361 	.byte	100
   01E3 00                  362 	.byte	0
   01E4 FF                  363 	.byte	-1
   01E5 0A                  364 	.byte	10
   01E6 05                  365 	.byte	5
   01E7 00                  366 	.byte	0
   01E8 00                  367 	.byte	0
   01E9 9C                  368 	.byte	-100
   01EA 00                  369 	.byte	0
   01EB 01                  370 	.byte	1
   01EC 0A                  371 	.byte	10
   01ED 05                  372 	.byte	5
   01EE 00                  373 	.byte	0
   01EF 64                  374 	.byte	100
   01F0 00                  375 	.byte	0
   01F1 FF                  376 	.byte	-1
   01F2 00                  377 	.byte	0
   01F3 0A                  378 	.byte	10
   01F4 05                  379 	.byte	5
   01F5 00                  380 	.byte	0
   01F6 9C                  381 	.byte	-100
   01F7 00                  382 	.byte	0
   01F8 01                  383 	.byte	1
   01F9 00                  384 	.byte	0
   01FA 0A                  385 	.byte	10
   01FB 05                  386 	.byte	5
   01FC 00 00               387 	.word	0	;skip space 7
   01FE 00 00               388 	.word	0	;skip space 5
   0200 00 00               389 	.word	0	;skip space 3
   0202 00                  390 	.byte	0	;skip space
   0203 04                  391 	.byte	4
   0204 00                  392 	.byte	0
   0205 CE                  393 	.byte	-50
   0206 9C                  394 	.byte	-100
   0207 01                  395 	.byte	1
   0208 02                  396 	.byte	2
   0209 32                  397 	.byte	50
   020A 05                  398 	.byte	5
   020B 00                  399 	.byte	0
   020C CE                  400 	.byte	-50
   020D 64                  401 	.byte	100
   020E 01                  402 	.byte	1
   020F FE                  403 	.byte	-2
   0210 32                  404 	.byte	50
   0211 05                  405 	.byte	5
   0212 00                  406 	.byte	0
   0213 32                  407 	.byte	50
   0214 9C                  408 	.byte	-100
   0215 FF                  409 	.byte	-1
   0216 02                  410 	.byte	2
   0217 32                  411 	.byte	50
   0218 05                  412 	.byte	5
   0219 00                  413 	.byte	0
   021A 32                  414 	.byte	50
   021B 64                  415 	.byte	100
   021C FF                  416 	.byte	-1
   021D FE                  417 	.byte	-2
   021E 32                  418 	.byte	50
   021F 05                  419 	.byte	5
   0220 00 00               420 	.word	0	;skip space 7
   0222 00 00               421 	.word	0	;skip space 5
   0224 00 00               422 	.word	0	;skip space 3
   0226 00                  423 	.byte	0	;skip space
                            424 	.globl _enemies
                            425 	.area .data
   0000                     426 _enemies:
   0000 01                  427 	.byte	1
   0001 00                  428 	.byte	0
   0002 00                  429 	.byte	0
   0003 00                  430 	.byte	0
   0004 00                  431 	.byte	0
   0005 00                  432 	.byte	0
   0006 00                  433 	.byte	0	;skip space
   0007 01                  434 	.byte	1
   0008 00                  435 	.byte	0
   0009 00                  436 	.byte	0
   000A 00                  437 	.byte	0
   000B 00                  438 	.byte	0
   000C 00                  439 	.byte	0
   000D 00                  440 	.byte	0	;skip space
   000E 01                  441 	.byte	1
   000F 00                  442 	.byte	0
   0010 00                  443 	.byte	0
   0011 00                  444 	.byte	0
   0012 00                  445 	.byte	0
   0013 00                  446 	.byte	0
   0014 00                  447 	.byte	0	;skip space
   0015 01                  448 	.byte	1
   0016 00                  449 	.byte	0
   0017 00                  450 	.byte	0
   0018 00                  451 	.byte	0
   0019 00                  452 	.byte	0
   001A 00                  453 	.byte	0
   001B 00                  454 	.byte	0	;skip space
   001C 01                  455 	.byte	1
   001D 00                  456 	.byte	0
   001E 00                  457 	.byte	0
   001F 00                  458 	.byte	0
   0020 00                  459 	.byte	0
   0021 00                  460 	.byte	0
   0022 00                  461 	.byte	0	;skip space
                            462 	.globl _vectors_enemy
                            463 	.area .text
   0227                     464 _vectors_enemy:
   0227 00                  465 	.byte	0
   0228 10                  466 	.byte	16
   0229 00                  467 	.byte	0
   022A FF                  468 	.byte	-1
   022B F0                  469 	.byte	-16
   022C 00                  470 	.byte	0
   022D FF                  471 	.byte	-1
   022E F0                  472 	.byte	-16
   022F 10                  473 	.byte	16
   0230 FF                  474 	.byte	-1
   0231 F0                  475 	.byte	-16
   0232 00                  476 	.byte	0
   0233 FF                  477 	.byte	-1
   0234 00                  478 	.byte	0
   0235 10                  479 	.byte	16
   0236 FF                  480 	.byte	-1
   0237 F0                  481 	.byte	-16
   0238 F0                  482 	.byte	-16
   0239 FF                  483 	.byte	-1
   023A 10                  484 	.byte	16
   023B F0                  485 	.byte	-16
   023C FF                  486 	.byte	-1
   023D F0                  487 	.byte	-16
   023E F0                  488 	.byte	-16
   023F FF                  489 	.byte	-1
   0240 10                  490 	.byte	16
   0241 F0                  491 	.byte	-16
   0242 FF                  492 	.byte	-1
   0243 00                  493 	.byte	0
   0244 10                  494 	.byte	16
   0245 FF                  495 	.byte	-1
   0246 10                  496 	.byte	16
   0247 00                  497 	.byte	0
   0248 FF                  498 	.byte	-1
   0249 10                  499 	.byte	16
   024A 10                  500 	.byte	16
   024B 01                  501 	.byte	1
   024C 00                  502 	.byte	0
   024D 00                  503 	.byte	0
                            504 	.globl _draw_enemy
   024E                     505 _draw_enemy:
   024E 32 7B         [ 5]  506 	leas	-5,s
   0250 AF 61         [ 6]  507 	stx	1,s
   0252 BD 00 00      [ 8]  508 	jsr	___Reset0Ref
   0255 C6 7F         [ 2]  509 	ldb	#127
   0257 D7 00         [ 4]  510 	stb	*_dp_VIA_t1_cnt_lo
   0259 AE 61         [ 6]  511 	ldx	1,s
   025B E6 02         [ 5]  512 	ldb	2,x
   025D E7 E4         [ 4]  513 	stb	,s
   025F AE 61         [ 6]  514 	ldx	1,s
   0261 E6 01         [ 5]  515 	ldb	1,x
   0263 E7 64         [ 5]  516 	stb	4,s
   0265 E6 E4         [ 4]  517 	ldb	,s
   0267 E7 63         [ 5]  518 	stb	3,s
   0269 E6 64         [ 5]  519 	ldb	4,s
   026B E7 E2         [ 6]  520 	stb	,-s
   026D E6 64         [ 5]  521 	ldb	4,s
   026F BD 00 00      [ 8]  522 	jsr	__Moveto_d
   0272 32 61         [ 5]  523 	leas	1,s
   0274 C6 22         [ 2]  524 	ldb	#34
   0276 D7 00         [ 4]  525 	stb	*_dp_VIA_t1_cnt_lo
   0278 8E 02 27      [ 3]  526 	ldx	#_vectors_enemy
   027B BD 00 00      [ 8]  527 	jsr	___Draw_VLp
   027E 32 65         [ 5]  528 	leas	5,s
   0280 39            [ 5]  529 	rts
                            530 	.globl _check_enemy
   0281                     531 _check_enemy:
   0281 32 7A         [ 5]  532 	leas	-6,s
   0283 AF 64         [ 6]  533 	stx	4,s
                            534 	; ldx	4,s	; optimization 5
   0285 E6 02         [ 5]  535 	ldb	2,x
   0287 E7 E4         [ 4]  536 	stb	,s
   0289 AE 64         [ 6]  537 	ldx	4,s
   028B E6 01         [ 5]  538 	ldb	1,x
   028D E7 61         [ 5]  539 	stb	1,s
   028F C6 08         [ 2]  540 	ldb	#8
   0291 E7 E2         [ 6]  541 	stb	,-s
   0293 C6 08         [ 2]  542 	ldb	#8
   0295 E7 E2         [ 6]  543 	stb	,-s
   0297 E6 62         [ 5]  544 	ldb	2,s
   0299 34 04         [ 6]  545 	pshs	b
   029B E6 64         [ 5]  546 	ldb	4,s
   029D 34 04         [ 6]  547 	pshs	b
   029F 6F E2         [ 8]  548 	clr	,-s
   02A1 5F            [ 2]  549 	clrb
   02A2 BD 00 00      [ 8]  550 	jsr	_check_collision
   02A5 32 65         [ 5]  551 	leas	5,s
   02A7 5D            [ 2]  552 	tstb
   02A8 27 30         [ 3]  553 	beq	L6
   02AA 8E 00 00      [ 3]  554 	ldx	#_bang
   02AD BD 00 00      [ 8]  555 	jsr	_play_explosion
   02B0 F6 00 04      [ 5]  556 	ldb	_tower+4
   02B3 E7 E4         [ 4]  557 	stb	,s
   02B5 AE 64         [ 6]  558 	ldx	4,s
   02B7 E6 05         [ 5]  559 	ldb	5,x
   02B9 E7 62         [ 5]  560 	stb	2,s
   02BB E6 E4         [ 4]  561 	ldb	,s
   02BD E1 62         [ 5]  562 	cmpb	2,s	;cmpqi:
   02BF 23 16         [ 3]  563 	bls	L5
   02C1 F6 00 04      [ 5]  564 	ldb	_tower+4
   02C4 E7 63         [ 5]  565 	stb	3,s
   02C6 AE 64         [ 6]  566 	ldx	4,s
   02C8 E6 05         [ 5]  567 	ldb	5,x
   02CA E0 63         [ 5]  568 	subb	3,s
   02CC 50            [ 2]  569 	negb
   02CD F7 00 04      [ 5]  570 	stb	_tower+4
   02D0 C6 01         [ 2]  571 	ldb	#1
   02D2 E7 F8 04      [ 8]  572 	stb	[4,s]
   02D5 20 03         [ 3]  573 	bra	L6
   02D7                     574 L5:
   02D7 7F 00 00      [ 7]  575 	clr	_tower
   02DA                     576 L6:
   02DA 32 66         [ 5]  577 	leas	6,s
   02DC 39            [ 5]  578 	rts
                            579 	.globl _init_enemies
   02DD                     580 _init_enemies:
   02DD 34 60         [ 7]  581 	pshs	y,u
   02DF 32 E8 90      [ 5]  582 	leas	-112,s
   02E2 F6 00 00      [ 5]  583 	ldb	_current_wave
   02E5 E7 E8 54      [ 5]  584 	stb	84,s
   02E8 F6 00 01      [ 5]  585 	ldb	_current_wave+1
   02EB 4F            [ 2]  586 	clra		;zero_extendqihi: R:b -> R:d
   02EC ED E4         [ 5]  587 	std	,s
   02EE E6 E8 54      [ 5]  588 	ldb	84,s
   02F1 4F            [ 2]  589 	clra		;zero_extendqihi: R:b -> R:d
   02F2 1F 01         [ 6]  590 	tfr	d,x
   02F4 EE E4         [ 5]  591 	ldu	,s
   02F6 EF E8 52      [ 6]  592 	stu	82,s
   02F9 EC E8 52      [ 6]  593 	ldd	82,s
   02FC 58            [ 2]  594 	aslb
   02FD 49            [ 2]  595 	rola
   02FE 58            [ 2]  596 	aslb
   02FF 49            [ 2]  597 	rola
   0300 ED E8 52      [ 6]  598 	std	82,s
                            599 	; ldd	82,s	; optimization 5
   0303 58            [ 2]  600 	aslb
   0304 49            [ 2]  601 	rola
   0305 58            [ 2]  602 	aslb
   0306 49            [ 2]  603 	rola
   0307 58            [ 2]  604 	aslb
   0308 49            [ 2]  605 	rola
   0309 EE E8 52      [ 6]  606 	ldu	82,s
   030C 33 CB         [ 8]  607 	leau	d,u
   030E EF E8 52      [ 6]  608 	stu	82,s
   0311 AF E8 50      [ 6]  609 	stx	80,s
   0314 EC E8 50      [ 6]  610 	ldd	80,s
   0317 58            [ 2]  611 	aslb
   0318 49            [ 2]  612 	rola
   0319 58            [ 2]  613 	aslb
   031A 49            [ 2]  614 	rola
   031B 58            [ 2]  615 	aslb
   031C 49            [ 2]  616 	rola
   031D ED E8 50      [ 6]  617 	std	80,s
                            618 	; ldd	80,s	; optimization 5
   0320 58            [ 2]  619 	aslb
   0321 49            [ 2]  620 	rola
   0322 58            [ 2]  621 	aslb
   0323 49            [ 2]  622 	rola
   0324 58            [ 2]  623 	aslb
   0325 49            [ 2]  624 	rola
   0326 ED E8 4E      [ 6]  625 	std	78,s
                            626 	; ldd	78,s	; optimization 5
   0329 A3 E8 50      [ 7]  627 	subd	80,s	;subhi: R:d -= 80,s
   032C ED E8 4E      [ 6]  628 	std	78,s
                            629 	; ldd	78,s	; optimization 5
   032F 34 10         [ 6]  630 	pshs	x	;subhi: R:d -= R:x
   0331 A3 E1         [ 9]  631 	subd	,s++
   0333 ED E8 4E      [ 6]  632 	std	78,s
                            633 	; ldd	78,s	; optimization 5
   0336 58            [ 2]  634 	aslb
   0337 49            [ 2]  635 	rola
   0338 ED E8 4E      [ 6]  636 	std	78,s
   033B EC E8 52      [ 6]  637 	ldd	82,s
   033E EE E8 4E      [ 6]  638 	ldu	78,s
   0341 30 CB         [ 8]  639 	leax	d,u
   0343 30 89 00 03   [ 8]  640 	leax	_waveData+2,x
   0347 E6 84         [ 4]  641 	ldb	,x
   0349 E7 E8 6D      [ 5]  642 	stb	109,s
   034C 6F E8 6E      [ 7]  643 	clr	110,s
   034F 7E 07 E2      [ 4]  644 	jmp	L8
   0352                     645 L9:
   0352 E6 E8 6E      [ 5]  646 	ldb	110,s
   0355 4F            [ 2]  647 	clra		;zero_extendqihi: R:b -> R:d
   0356 1F 01         [ 6]  648 	tfr	d,x
   0358 AF E8 4C      [ 6]  649 	stx	76,s
   035B EC E8 4C      [ 6]  650 	ldd	76,s
   035E 58            [ 2]  651 	aslb
   035F 49            [ 2]  652 	rola
   0360 58            [ 2]  653 	aslb
   0361 49            [ 2]  654 	rola
   0362 58            [ 2]  655 	aslb
   0363 49            [ 2]  656 	rola
   0364 ED E8 4C      [ 6]  657 	std	76,s
                            658 	; ldd	76,s	; optimization 5
   0367 34 10         [ 6]  659 	pshs	x	;subhi: R:d -= R:x
   0369 A3 E1         [ 9]  660 	subd	,s++
   036B ED E8 4C      [ 6]  661 	std	76,s
   036E EE E8 4C      [ 6]  662 	ldu	76,s
   0371 30 C9 00 00   [ 8]  663 	leax	_enemies,u
   0375 6F 84         [ 6]  664 	clr	,x
   0377 E6 E8 6E      [ 5]  665 	ldb	110,s
   037A E7 E8 55      [ 5]  666 	stb	85,s
   037D F6 00 00      [ 5]  667 	ldb	_current_wave
   0380 E7 E8 56      [ 5]  668 	stb	86,s
   0383 F6 00 01      [ 5]  669 	ldb	_current_wave+1
   0386 E7 E8 57      [ 5]  670 	stb	87,s
   0389 E6 E8 6E      [ 5]  671 	ldb	110,s
   038C 4F            [ 2]  672 	clra		;zero_extendqihi: R:b -> R:d
   038D 1F 01         [ 6]  673 	tfr	d,x
   038F E6 E8 57      [ 5]  674 	ldb	87,s
   0392 4F            [ 2]  675 	clra		;zero_extendqihi: R:b -> R:d
   0393 1F 02         [ 6]  676 	tfr	d,y
   0395 E6 E8 56      [ 5]  677 	ldb	86,s
   0398 4F            [ 2]  678 	clra		;zero_extendqihi: R:b -> R:d
   0399 ED E8 4A      [ 6]  679 	std	74,s
   039C AF E8 48      [ 6]  680 	stx	72,s
   039F EC E8 48      [ 6]  681 	ldd	72,s
   03A2 58            [ 2]  682 	aslb
   03A3 49            [ 2]  683 	rola
   03A4 58            [ 2]  684 	aslb
   03A5 49            [ 2]  685 	rola
   03A6 58            [ 2]  686 	aslb
   03A7 49            [ 2]  687 	rola
   03A8 ED E8 48      [ 6]  688 	std	72,s
                            689 	; ldd	72,s	; optimization 5
   03AB 34 10         [ 6]  690 	pshs	x	;subhi: R:d -= R:x
   03AD A3 E1         [ 9]  691 	subd	,s++
   03AF ED E8 48      [ 6]  692 	std	72,s
   03B2 10 AF E8 46   [ 7]  693 	sty	70,s
   03B6 EC E8 46      [ 6]  694 	ldd	70,s
   03B9 58            [ 2]  695 	aslb
   03BA 49            [ 2]  696 	rola
   03BB 58            [ 2]  697 	aslb
   03BC 49            [ 2]  698 	rola
   03BD ED E8 46      [ 6]  699 	std	70,s
                            700 	; ldd	70,s	; optimization 5
   03C0 58            [ 2]  701 	aslb
   03C1 49            [ 2]  702 	rola
   03C2 58            [ 2]  703 	aslb
   03C3 49            [ 2]  704 	rola
   03C4 58            [ 2]  705 	aslb
   03C5 49            [ 2]  706 	rola
   03C6 AE E8 46      [ 6]  707 	ldx	70,s
   03C9 30 8B         [ 8]  708 	leax	d,x
   03CB AF E8 46      [ 6]  709 	stx	70,s
   03CE EC E8 48      [ 6]  710 	ldd	72,s
   03D1 EE E8 46      [ 6]  711 	ldu	70,s
   03D4 30 CB         [ 8]  712 	leax	d,u
   03D6 EC E8 4A      [ 6]  713 	ldd	74,s
   03D9 ED E8 44      [ 6]  714 	std	68,s
                            715 	; ldd	68,s	; optimization 5
   03DC 58            [ 2]  716 	aslb
   03DD 49            [ 2]  717 	rola
   03DE 58            [ 2]  718 	aslb
   03DF 49            [ 2]  719 	rola
   03E0 58            [ 2]  720 	aslb
   03E1 49            [ 2]  721 	rola
   03E2 ED E8 44      [ 6]  722 	std	68,s
                            723 	; ldd	68,s	; optimization 5
   03E5 58            [ 2]  724 	aslb
   03E6 49            [ 2]  725 	rola
   03E7 58            [ 2]  726 	aslb
   03E8 49            [ 2]  727 	rola
   03E9 58            [ 2]  728 	aslb
   03EA 49            [ 2]  729 	rola
   03EB ED E8 42      [ 6]  730 	std	66,s
                            731 	; ldd	66,s	; optimization 5
   03EE A3 E8 44      [ 7]  732 	subd	68,s	;subhi: R:d -= 68,s
   03F1 ED E8 42      [ 6]  733 	std	66,s
                            734 	; ldd	66,s	; optimization 5
   03F4 A3 E8 4A      [ 7]  735 	subd	74,s	;subhi: R:d -= 74,s
   03F7 ED E8 42      [ 6]  736 	std	66,s
                            737 	; ldd	66,s	; optimization 5
   03FA 58            [ 2]  738 	aslb
   03FB 49            [ 2]  739 	rola
   03FC ED E8 42      [ 6]  740 	std	66,s
   03FF 1E 01         [ 8]  741 	exg	d,x
   0401 E3 E8 42      [ 7]  742 	addd	66,s
   0404 1E 01         [ 8]  743 	exg	d,x
   0406 30 89 00 05   [ 8]  744 	leax	_waveData+4,x
   040A E6 84         [ 4]  745 	ldb	,x
   040C E7 E8 58      [ 5]  746 	stb	88,s
   040F E6 E8 55      [ 5]  747 	ldb	85,s
   0412 4F            [ 2]  748 	clra		;zero_extendqihi: R:b -> R:d
   0413 1F 01         [ 6]  749 	tfr	d,x
   0415 AF E8 40      [ 6]  750 	stx	64,s
   0418 EC E8 40      [ 6]  751 	ldd	64,s
   041B 58            [ 2]  752 	aslb
   041C 49            [ 2]  753 	rola
   041D 58            [ 2]  754 	aslb
   041E 49            [ 2]  755 	rola
   041F 58            [ 2]  756 	aslb
   0420 49            [ 2]  757 	rola
   0421 ED E8 40      [ 6]  758 	std	64,s
                            759 	; ldd	64,s	; optimization 5
   0424 34 10         [ 6]  760 	pshs	x	;subhi: R:d -= R:x
   0426 A3 E1         [ 9]  761 	subd	,s++
   0428 ED E8 40      [ 6]  762 	std	64,s
   042B EE E8 40      [ 6]  763 	ldu	64,s
   042E 30 C9 00 01   [ 8]  764 	leax	_enemies+1,u
   0432 E6 E8 58      [ 5]  765 	ldb	88,s
   0435 E7 84         [ 4]  766 	stb	,x
   0437 E6 E8 6E      [ 5]  767 	ldb	110,s
   043A E7 E8 59      [ 5]  768 	stb	89,s
   043D F6 00 00      [ 5]  769 	ldb	_current_wave
   0440 E7 E8 5A      [ 5]  770 	stb	90,s
   0443 F6 00 01      [ 5]  771 	ldb	_current_wave+1
   0446 E7 E8 5B      [ 5]  772 	stb	91,s
   0449 E6 E8 6E      [ 5]  773 	ldb	110,s
   044C 4F            [ 2]  774 	clra		;zero_extendqihi: R:b -> R:d
   044D 1F 01         [ 6]  775 	tfr	d,x
   044F E6 E8 5B      [ 5]  776 	ldb	91,s
   0452 4F            [ 2]  777 	clra		;zero_extendqihi: R:b -> R:d
   0453 1F 02         [ 6]  778 	tfr	d,y
   0455 E6 E8 5A      [ 5]  779 	ldb	90,s
   0458 4F            [ 2]  780 	clra		;zero_extendqihi: R:b -> R:d
   0459 ED E8 3E      [ 6]  781 	std	62,s
   045C AF E8 3C      [ 6]  782 	stx	60,s
   045F EC E8 3C      [ 6]  783 	ldd	60,s
   0462 58            [ 2]  784 	aslb
   0463 49            [ 2]  785 	rola
   0464 58            [ 2]  786 	aslb
   0465 49            [ 2]  787 	rola
   0466 58            [ 2]  788 	aslb
   0467 49            [ 2]  789 	rola
   0468 ED E8 3C      [ 6]  790 	std	60,s
                            791 	; ldd	60,s	; optimization 5
   046B 34 10         [ 6]  792 	pshs	x	;subhi: R:d -= R:x
   046D A3 E1         [ 9]  793 	subd	,s++
   046F ED E8 3C      [ 6]  794 	std	60,s
   0472 10 AF E8 3A   [ 7]  795 	sty	58,s
   0476 EC E8 3A      [ 6]  796 	ldd	58,s
   0479 58            [ 2]  797 	aslb
   047A 49            [ 2]  798 	rola
   047B 58            [ 2]  799 	aslb
   047C 49            [ 2]  800 	rola
   047D ED E8 3A      [ 6]  801 	std	58,s
                            802 	; ldd	58,s	; optimization 5
   0480 58            [ 2]  803 	aslb
   0481 49            [ 2]  804 	rola
   0482 58            [ 2]  805 	aslb
   0483 49            [ 2]  806 	rola
   0484 58            [ 2]  807 	aslb
   0485 49            [ 2]  808 	rola
   0486 AE E8 3A      [ 6]  809 	ldx	58,s
   0489 30 8B         [ 8]  810 	leax	d,x
   048B AF E8 3A      [ 6]  811 	stx	58,s
   048E EC E8 3C      [ 6]  812 	ldd	60,s
   0491 EE E8 3A      [ 6]  813 	ldu	58,s
   0494 30 CB         [ 8]  814 	leax	d,u
   0496 EC E8 3E      [ 6]  815 	ldd	62,s
   0499 ED E8 38      [ 6]  816 	std	56,s
                            817 	; ldd	56,s	; optimization 5
   049C 58            [ 2]  818 	aslb
   049D 49            [ 2]  819 	rola
   049E 58            [ 2]  820 	aslb
   049F 49            [ 2]  821 	rola
   04A0 58            [ 2]  822 	aslb
   04A1 49            [ 2]  823 	rola
   04A2 ED E8 38      [ 6]  824 	std	56,s
                            825 	; ldd	56,s	; optimization 5
   04A5 58            [ 2]  826 	aslb
   04A6 49            [ 2]  827 	rola
   04A7 58            [ 2]  828 	aslb
   04A8 49            [ 2]  829 	rola
   04A9 58            [ 2]  830 	aslb
   04AA 49            [ 2]  831 	rola
   04AB ED E8 36      [ 6]  832 	std	54,s
                            833 	; ldd	54,s	; optimization 5
   04AE A3 E8 38      [ 7]  834 	subd	56,s	;subhi: R:d -= 56,s
   04B1 ED E8 36      [ 6]  835 	std	54,s
                            836 	; ldd	54,s	; optimization 5
   04B4 A3 E8 3E      [ 7]  837 	subd	62,s	;subhi: R:d -= 62,s
   04B7 ED E8 36      [ 6]  838 	std	54,s
                            839 	; ldd	54,s	; optimization 5
   04BA 58            [ 2]  840 	aslb
   04BB 49            [ 2]  841 	rola
   04BC ED E8 36      [ 6]  842 	std	54,s
   04BF 1E 01         [ 8]  843 	exg	d,x
   04C1 E3 E8 36      [ 7]  844 	addd	54,s
   04C4 1E 01         [ 8]  845 	exg	d,x
   04C6 30 89 00 06   [ 8]  846 	leax	_waveData+5,x
   04CA E6 84         [ 4]  847 	ldb	,x
   04CC E7 E8 5C      [ 5]  848 	stb	92,s
   04CF E6 E8 59      [ 5]  849 	ldb	89,s
   04D2 4F            [ 2]  850 	clra		;zero_extendqihi: R:b -> R:d
   04D3 1F 01         [ 6]  851 	tfr	d,x
   04D5 AF E8 34      [ 6]  852 	stx	52,s
   04D8 EC E8 34      [ 6]  853 	ldd	52,s
   04DB 58            [ 2]  854 	aslb
   04DC 49            [ 2]  855 	rola
   04DD 58            [ 2]  856 	aslb
   04DE 49            [ 2]  857 	rola
   04DF 58            [ 2]  858 	aslb
   04E0 49            [ 2]  859 	rola
   04E1 ED E8 34      [ 6]  860 	std	52,s
                            861 	; ldd	52,s	; optimization 5
   04E4 34 10         [ 6]  862 	pshs	x	;subhi: R:d -= R:x
   04E6 A3 E1         [ 9]  863 	subd	,s++
   04E8 ED E8 34      [ 6]  864 	std	52,s
   04EB EE E8 34      [ 6]  865 	ldu	52,s
   04EE 30 C9 00 02   [ 8]  866 	leax	_enemies+2,u
   04F2 E6 E8 5C      [ 5]  867 	ldb	92,s
   04F5 E7 84         [ 4]  868 	stb	,x
   04F7 E6 E8 6E      [ 5]  869 	ldb	110,s
   04FA E7 E8 5D      [ 5]  870 	stb	93,s
   04FD F6 00 00      [ 5]  871 	ldb	_current_wave
   0500 E7 E8 5E      [ 5]  872 	stb	94,s
   0503 F6 00 01      [ 5]  873 	ldb	_current_wave+1
   0506 E7 E8 5F      [ 5]  874 	stb	95,s
   0509 E6 E8 6E      [ 5]  875 	ldb	110,s
   050C 4F            [ 2]  876 	clra		;zero_extendqihi: R:b -> R:d
   050D 1F 01         [ 6]  877 	tfr	d,x
   050F E6 E8 5F      [ 5]  878 	ldb	95,s
   0512 4F            [ 2]  879 	clra		;zero_extendqihi: R:b -> R:d
   0513 1F 02         [ 6]  880 	tfr	d,y
   0515 E6 E8 5E      [ 5]  881 	ldb	94,s
   0518 4F            [ 2]  882 	clra		;zero_extendqihi: R:b -> R:d
   0519 ED E8 32      [ 6]  883 	std	50,s
   051C AF E8 30      [ 6]  884 	stx	48,s
   051F EC E8 30      [ 6]  885 	ldd	48,s
   0522 58            [ 2]  886 	aslb
   0523 49            [ 2]  887 	rola
   0524 58            [ 2]  888 	aslb
   0525 49            [ 2]  889 	rola
   0526 58            [ 2]  890 	aslb
   0527 49            [ 2]  891 	rola
   0528 ED E8 30      [ 6]  892 	std	48,s
                            893 	; ldd	48,s	; optimization 5
   052B 34 10         [ 6]  894 	pshs	x	;subhi: R:d -= R:x
   052D A3 E1         [ 9]  895 	subd	,s++
   052F ED E8 30      [ 6]  896 	std	48,s
   0532 10 AF E8 2E   [ 7]  897 	sty	46,s
   0536 EC E8 2E      [ 6]  898 	ldd	46,s
   0539 58            [ 2]  899 	aslb
   053A 49            [ 2]  900 	rola
   053B 58            [ 2]  901 	aslb
   053C 49            [ 2]  902 	rola
   053D ED E8 2E      [ 6]  903 	std	46,s
                            904 	; ldd	46,s	; optimization 5
   0540 58            [ 2]  905 	aslb
   0541 49            [ 2]  906 	rola
   0542 58            [ 2]  907 	aslb
   0543 49            [ 2]  908 	rola
   0544 58            [ 2]  909 	aslb
   0545 49            [ 2]  910 	rola
   0546 AE E8 2E      [ 6]  911 	ldx	46,s
   0549 30 8B         [ 8]  912 	leax	d,x
   054B AF E8 2E      [ 6]  913 	stx	46,s
   054E EC E8 30      [ 6]  914 	ldd	48,s
   0551 EE E8 2E      [ 6]  915 	ldu	46,s
   0554 30 CB         [ 8]  916 	leax	d,u
   0556 EC E8 32      [ 6]  917 	ldd	50,s
   0559 ED E8 2C      [ 6]  918 	std	44,s
                            919 	; ldd	44,s	; optimization 5
   055C 58            [ 2]  920 	aslb
   055D 49            [ 2]  921 	rola
   055E 58            [ 2]  922 	aslb
   055F 49            [ 2]  923 	rola
   0560 58            [ 2]  924 	aslb
   0561 49            [ 2]  925 	rola
   0562 ED E8 2C      [ 6]  926 	std	44,s
                            927 	; ldd	44,s	; optimization 5
   0565 58            [ 2]  928 	aslb
   0566 49            [ 2]  929 	rola
   0567 58            [ 2]  930 	aslb
   0568 49            [ 2]  931 	rola
   0569 58            [ 2]  932 	aslb
   056A 49            [ 2]  933 	rola
   056B ED E8 2A      [ 6]  934 	std	42,s
                            935 	; ldd	42,s	; optimization 5
   056E A3 E8 2C      [ 7]  936 	subd	44,s	;subhi: R:d -= 44,s
   0571 ED E8 2A      [ 6]  937 	std	42,s
                            938 	; ldd	42,s	; optimization 5
   0574 A3 E8 32      [ 7]  939 	subd	50,s	;subhi: R:d -= 50,s
   0577 ED E8 2A      [ 6]  940 	std	42,s
                            941 	; ldd	42,s	; optimization 5
   057A 58            [ 2]  942 	aslb
   057B 49            [ 2]  943 	rola
   057C ED E8 2A      [ 6]  944 	std	42,s
   057F 1E 01         [ 8]  945 	exg	d,x
   0581 E3 E8 2A      [ 7]  946 	addd	42,s
   0584 1E 01         [ 8]  947 	exg	d,x
   0586 30 89 00 07   [ 8]  948 	leax	_waveData+6,x
   058A E6 84         [ 4]  949 	ldb	,x
   058C E7 E8 60      [ 5]  950 	stb	96,s
   058F E6 E8 5D      [ 5]  951 	ldb	93,s
   0592 4F            [ 2]  952 	clra		;zero_extendqihi: R:b -> R:d
   0593 1F 01         [ 6]  953 	tfr	d,x
   0595 AF E8 28      [ 6]  954 	stx	40,s
   0598 EC E8 28      [ 6]  955 	ldd	40,s
   059B 58            [ 2]  956 	aslb
   059C 49            [ 2]  957 	rola
   059D 58            [ 2]  958 	aslb
   059E 49            [ 2]  959 	rola
   059F 58            [ 2]  960 	aslb
   05A0 49            [ 2]  961 	rola
   05A1 ED E8 28      [ 6]  962 	std	40,s
                            963 	; ldd	40,s	; optimization 5
   05A4 34 10         [ 6]  964 	pshs	x	;subhi: R:d -= R:x
   05A6 A3 E1         [ 9]  965 	subd	,s++
   05A8 ED E8 28      [ 6]  966 	std	40,s
   05AB EE E8 28      [ 6]  967 	ldu	40,s
   05AE 30 C9 00 03   [ 8]  968 	leax	_enemies+3,u
   05B2 E6 E8 60      [ 5]  969 	ldb	96,s
   05B5 E7 84         [ 4]  970 	stb	,x
   05B7 E6 E8 6E      [ 5]  971 	ldb	110,s
   05BA E7 E8 61      [ 5]  972 	stb	97,s
   05BD F6 00 00      [ 5]  973 	ldb	_current_wave
   05C0 E7 E8 62      [ 5]  974 	stb	98,s
   05C3 F6 00 01      [ 5]  975 	ldb	_current_wave+1
   05C6 E7 E8 63      [ 5]  976 	stb	99,s
   05C9 E6 E8 6E      [ 5]  977 	ldb	110,s
   05CC 4F            [ 2]  978 	clra		;zero_extendqihi: R:b -> R:d
   05CD 1F 01         [ 6]  979 	tfr	d,x
   05CF E6 E8 63      [ 5]  980 	ldb	99,s
   05D2 4F            [ 2]  981 	clra		;zero_extendqihi: R:b -> R:d
   05D3 1F 02         [ 6]  982 	tfr	d,y
   05D5 E6 E8 62      [ 5]  983 	ldb	98,s
   05D8 4F            [ 2]  984 	clra		;zero_extendqihi: R:b -> R:d
   05D9 ED E8 26      [ 6]  985 	std	38,s
   05DC AF E8 24      [ 6]  986 	stx	36,s
   05DF EC E8 24      [ 6]  987 	ldd	36,s
   05E2 58            [ 2]  988 	aslb
   05E3 49            [ 2]  989 	rola
   05E4 58            [ 2]  990 	aslb
   05E5 49            [ 2]  991 	rola
   05E6 58            [ 2]  992 	aslb
   05E7 49            [ 2]  993 	rola
   05E8 ED E8 24      [ 6]  994 	std	36,s
                            995 	; ldd	36,s	; optimization 5
   05EB 34 10         [ 6]  996 	pshs	x	;subhi: R:d -= R:x
   05ED A3 E1         [ 9]  997 	subd	,s++
   05EF ED E8 24      [ 6]  998 	std	36,s
   05F2 10 AF E8 22   [ 7]  999 	sty	34,s
   05F6 EC E8 22      [ 6] 1000 	ldd	34,s
   05F9 58            [ 2] 1001 	aslb
   05FA 49            [ 2] 1002 	rola
   05FB 58            [ 2] 1003 	aslb
   05FC 49            [ 2] 1004 	rola
   05FD ED E8 22      [ 6] 1005 	std	34,s
                           1006 	; ldd	34,s	; optimization 5
   0600 58            [ 2] 1007 	aslb
   0601 49            [ 2] 1008 	rola
   0602 58            [ 2] 1009 	aslb
   0603 49            [ 2] 1010 	rola
   0604 58            [ 2] 1011 	aslb
   0605 49            [ 2] 1012 	rola
   0606 AE E8 22      [ 6] 1013 	ldx	34,s
   0609 30 8B         [ 8] 1014 	leax	d,x
   060B AF E8 22      [ 6] 1015 	stx	34,s
   060E EC E8 24      [ 6] 1016 	ldd	36,s
   0611 EE E8 22      [ 6] 1017 	ldu	34,s
   0614 30 CB         [ 8] 1018 	leax	d,u
   0616 EC E8 26      [ 6] 1019 	ldd	38,s
   0619 ED E8 20      [ 6] 1020 	std	32,s
                           1021 	; ldd	32,s	; optimization 5
   061C 58            [ 2] 1022 	aslb
   061D 49            [ 2] 1023 	rola
   061E 58            [ 2] 1024 	aslb
   061F 49            [ 2] 1025 	rola
   0620 58            [ 2] 1026 	aslb
   0621 49            [ 2] 1027 	rola
   0622 ED E8 20      [ 6] 1028 	std	32,s
                           1029 	; ldd	32,s	; optimization 5
   0625 58            [ 2] 1030 	aslb
   0626 49            [ 2] 1031 	rola
   0627 58            [ 2] 1032 	aslb
   0628 49            [ 2] 1033 	rola
   0629 58            [ 2] 1034 	aslb
   062A 49            [ 2] 1035 	rola
   062B ED E8 1E      [ 6] 1036 	std	30,s
                           1037 	; ldd	30,s	; optimization 5
   062E A3 E8 20      [ 7] 1038 	subd	32,s	;subhi: R:d -= 32,s
   0631 ED E8 1E      [ 6] 1039 	std	30,s
                           1040 	; ldd	30,s	; optimization 5
   0634 A3 E8 26      [ 7] 1041 	subd	38,s	;subhi: R:d -= 38,s
   0637 ED E8 1E      [ 6] 1042 	std	30,s
                           1043 	; ldd	30,s	; optimization 5
   063A 58            [ 2] 1044 	aslb
   063B 49            [ 2] 1045 	rola
   063C ED E8 1E      [ 6] 1046 	std	30,s
   063F 1E 01         [ 8] 1047 	exg	d,x
   0641 E3 E8 1E      [ 7] 1048 	addd	30,s
   0644 1E 01         [ 8] 1049 	exg	d,x
   0646 30 89 00 08   [ 8] 1050 	leax	_waveData+7,x
   064A E6 84         [ 4] 1051 	ldb	,x
   064C E7 E8 64      [ 5] 1052 	stb	100,s
   064F E6 E8 61      [ 5] 1053 	ldb	97,s
   0652 4F            [ 2] 1054 	clra		;zero_extendqihi: R:b -> R:d
   0653 1F 01         [ 6] 1055 	tfr	d,x
   0655 AF E8 1C      [ 6] 1056 	stx	28,s
   0658 EC E8 1C      [ 6] 1057 	ldd	28,s
   065B 58            [ 2] 1058 	aslb
   065C 49            [ 2] 1059 	rola
   065D 58            [ 2] 1060 	aslb
   065E 49            [ 2] 1061 	rola
   065F 58            [ 2] 1062 	aslb
   0660 49            [ 2] 1063 	rola
   0661 ED E8 1C      [ 6] 1064 	std	28,s
                           1065 	; ldd	28,s	; optimization 5
   0664 34 10         [ 6] 1066 	pshs	x	;subhi: R:d -= R:x
   0666 A3 E1         [ 9] 1067 	subd	,s++
   0668 ED E8 1C      [ 6] 1068 	std	28,s
   066B EE E8 1C      [ 6] 1069 	ldu	28,s
   066E 30 C9 00 04   [ 8] 1070 	leax	_enemies+4,u
   0672 E6 E8 64      [ 5] 1071 	ldb	100,s
   0675 E7 84         [ 4] 1072 	stb	,x
   0677 E6 E8 6E      [ 5] 1073 	ldb	110,s
   067A E7 E8 65      [ 5] 1074 	stb	101,s
   067D F6 00 00      [ 5] 1075 	ldb	_current_wave
   0680 E7 E8 66      [ 5] 1076 	stb	102,s
   0683 F6 00 01      [ 5] 1077 	ldb	_current_wave+1
   0686 E7 E8 67      [ 5] 1078 	stb	103,s
   0689 E6 E8 6E      [ 5] 1079 	ldb	110,s
   068C 4F            [ 2] 1080 	clra		;zero_extendqihi: R:b -> R:d
   068D 1F 01         [ 6] 1081 	tfr	d,x
   068F E6 E8 67      [ 5] 1082 	ldb	103,s
   0692 4F            [ 2] 1083 	clra		;zero_extendqihi: R:b -> R:d
   0693 1F 02         [ 6] 1084 	tfr	d,y
   0695 E6 E8 66      [ 5] 1085 	ldb	102,s
   0698 4F            [ 2] 1086 	clra		;zero_extendqihi: R:b -> R:d
   0699 ED E8 1A      [ 6] 1087 	std	26,s
   069C AF E8 18      [ 6] 1088 	stx	24,s
   069F EC E8 18      [ 6] 1089 	ldd	24,s
   06A2 58            [ 2] 1090 	aslb
   06A3 49            [ 2] 1091 	rola
   06A4 58            [ 2] 1092 	aslb
   06A5 49            [ 2] 1093 	rola
   06A6 58            [ 2] 1094 	aslb
   06A7 49            [ 2] 1095 	rola
   06A8 ED E8 18      [ 6] 1096 	std	24,s
                           1097 	; ldd	24,s	; optimization 5
   06AB 34 10         [ 6] 1098 	pshs	x	;subhi: R:d -= R:x
   06AD A3 E1         [ 9] 1099 	subd	,s++
   06AF ED E8 18      [ 6] 1100 	std	24,s
   06B2 10 AF E8 16   [ 7] 1101 	sty	22,s
   06B6 EC E8 16      [ 6] 1102 	ldd	22,s
   06B9 58            [ 2] 1103 	aslb
   06BA 49            [ 2] 1104 	rola
   06BB 58            [ 2] 1105 	aslb
   06BC 49            [ 2] 1106 	rola
   06BD ED E8 16      [ 6] 1107 	std	22,s
                           1108 	; ldd	22,s	; optimization 5
   06C0 58            [ 2] 1109 	aslb
   06C1 49            [ 2] 1110 	rola
   06C2 58            [ 2] 1111 	aslb
   06C3 49            [ 2] 1112 	rola
   06C4 58            [ 2] 1113 	aslb
   06C5 49            [ 2] 1114 	rola
   06C6 AE E8 16      [ 6] 1115 	ldx	22,s
   06C9 30 8B         [ 8] 1116 	leax	d,x
   06CB AF E8 16      [ 6] 1117 	stx	22,s
   06CE EC E8 18      [ 6] 1118 	ldd	24,s
   06D1 EE E8 16      [ 6] 1119 	ldu	22,s
   06D4 30 CB         [ 8] 1120 	leax	d,u
   06D6 EC E8 1A      [ 6] 1121 	ldd	26,s
   06D9 ED E8 14      [ 6] 1122 	std	20,s
                           1123 	; ldd	20,s	; optimization 5
   06DC 58            [ 2] 1124 	aslb
   06DD 49            [ 2] 1125 	rola
   06DE 58            [ 2] 1126 	aslb
   06DF 49            [ 2] 1127 	rola
   06E0 58            [ 2] 1128 	aslb
   06E1 49            [ 2] 1129 	rola
   06E2 ED E8 14      [ 6] 1130 	std	20,s
                           1131 	; ldd	20,s	; optimization 5
   06E5 58            [ 2] 1132 	aslb
   06E6 49            [ 2] 1133 	rola
   06E7 58            [ 2] 1134 	aslb
   06E8 49            [ 2] 1135 	rola
   06E9 58            [ 2] 1136 	aslb
   06EA 49            [ 2] 1137 	rola
   06EB ED E8 12      [ 6] 1138 	std	18,s
                           1139 	; ldd	18,s	; optimization 5
   06EE A3 E8 14      [ 7] 1140 	subd	20,s	;subhi: R:d -= 20,s
   06F1 ED E8 12      [ 6] 1141 	std	18,s
                           1142 	; ldd	18,s	; optimization 5
   06F4 A3 E8 1A      [ 7] 1143 	subd	26,s	;subhi: R:d -= 26,s
   06F7 ED E8 12      [ 6] 1144 	std	18,s
                           1145 	; ldd	18,s	; optimization 5
   06FA 58            [ 2] 1146 	aslb
   06FB 49            [ 2] 1147 	rola
   06FC ED E8 12      [ 6] 1148 	std	18,s
   06FF 1E 01         [ 8] 1149 	exg	d,x
   0701 E3 E8 12      [ 7] 1150 	addd	18,s
   0704 1E 01         [ 8] 1151 	exg	d,x
   0706 30 89 00 09   [ 8] 1152 	leax	_waveData+8,x
   070A E6 84         [ 4] 1153 	ldb	,x
   070C E7 E8 68      [ 5] 1154 	stb	104,s
   070F E6 E8 65      [ 5] 1155 	ldb	101,s
   0712 4F            [ 2] 1156 	clra		;zero_extendqihi: R:b -> R:d
   0713 1F 01         [ 6] 1157 	tfr	d,x
   0715 AF E8 10      [ 6] 1158 	stx	16,s
   0718 EC E8 10      [ 6] 1159 	ldd	16,s
   071B 58            [ 2] 1160 	aslb
   071C 49            [ 2] 1161 	rola
   071D 58            [ 2] 1162 	aslb
   071E 49            [ 2] 1163 	rola
   071F 58            [ 2] 1164 	aslb
   0720 49            [ 2] 1165 	rola
   0721 ED E8 10      [ 6] 1166 	std	16,s
                           1167 	; ldd	16,s	; optimization 5
   0724 34 10         [ 6] 1168 	pshs	x	;subhi: R:d -= R:x
   0726 A3 E1         [ 9] 1169 	subd	,s++
   0728 ED E8 10      [ 6] 1170 	std	16,s
   072B EE E8 10      [ 6] 1171 	ldu	16,s
   072E 30 C9 00 05   [ 8] 1172 	leax	_enemies+5,u
   0732 E6 E8 68      [ 5] 1173 	ldb	104,s
   0735 E7 84         [ 4] 1174 	stb	,x
   0737 E6 E8 6E      [ 5] 1175 	ldb	110,s
   073A E7 E8 69      [ 5] 1176 	stb	105,s
   073D F6 00 00      [ 5] 1177 	ldb	_current_wave
   0740 E7 E8 6A      [ 5] 1178 	stb	106,s
   0743 F6 00 01      [ 5] 1179 	ldb	_current_wave+1
   0746 E7 E8 6B      [ 5] 1180 	stb	107,s
   0749 E6 E8 6E      [ 5] 1181 	ldb	110,s
   074C 4F            [ 2] 1182 	clra		;zero_extendqihi: R:b -> R:d
   074D CE 00 01      [ 3] 1183 	ldu	#1
   0750 30 CB         [ 8] 1184 	leax	d,u
   0752 E6 E8 6B      [ 5] 1185 	ldb	107,s
   0755 4F            [ 2] 1186 	clra		;zero_extendqihi: R:b -> R:d
   0756 1F 02         [ 6] 1187 	tfr	d,y
   0758 E6 E8 6A      [ 5] 1188 	ldb	106,s
   075B 4F            [ 2] 1189 	clra		;zero_extendqihi: R:b -> R:d
   075C ED 6E         [ 6] 1190 	std	14,s
   075E AF 6C         [ 6] 1191 	stx	12,s
   0760 EC 6C         [ 6] 1192 	ldd	12,s
   0762 58            [ 2] 1193 	aslb
   0763 49            [ 2] 1194 	rola
   0764 58            [ 2] 1195 	aslb
   0765 49            [ 2] 1196 	rola
   0766 58            [ 2] 1197 	aslb
   0767 49            [ 2] 1198 	rola
   0768 ED 6C         [ 6] 1199 	std	12,s
                           1200 	; ldd	12,s	; optimization 5
   076A 34 10         [ 6] 1201 	pshs	x	;subhi: R:d -= R:x
   076C A3 E1         [ 9] 1202 	subd	,s++
   076E ED 6C         [ 6] 1203 	std	12,s
   0770 10 AF 6A      [ 7] 1204 	sty	10,s
   0773 EC 6A         [ 6] 1205 	ldd	10,s
   0775 58            [ 2] 1206 	aslb
   0776 49            [ 2] 1207 	rola
   0777 58            [ 2] 1208 	aslb
   0778 49            [ 2] 1209 	rola
   0779 ED 6A         [ 6] 1210 	std	10,s
                           1211 	; ldd	10,s	; optimization 5
   077B 58            [ 2] 1212 	aslb
   077C 49            [ 2] 1213 	rola
   077D 58            [ 2] 1214 	aslb
   077E 49            [ 2] 1215 	rola
   077F 58            [ 2] 1216 	aslb
   0780 49            [ 2] 1217 	rola
   0781 AE 6A         [ 6] 1218 	ldx	10,s
   0783 30 8B         [ 8] 1219 	leax	d,x
   0785 AF 6A         [ 6] 1220 	stx	10,s
   0787 EC 6C         [ 6] 1221 	ldd	12,s
   0789 EE 6A         [ 6] 1222 	ldu	10,s
   078B 30 CB         [ 8] 1223 	leax	d,u
   078D EC 6E         [ 6] 1224 	ldd	14,s
   078F ED 68         [ 6] 1225 	std	8,s
                           1226 	; ldd	8,s	; optimization 5
   0791 58            [ 2] 1227 	aslb
   0792 49            [ 2] 1228 	rola
   0793 58            [ 2] 1229 	aslb
   0794 49            [ 2] 1230 	rola
   0795 58            [ 2] 1231 	aslb
   0796 49            [ 2] 1232 	rola
   0797 ED 68         [ 6] 1233 	std	8,s
                           1234 	; ldd	8,s	; optimization 5
   0799 58            [ 2] 1235 	aslb
   079A 49            [ 2] 1236 	rola
   079B 58            [ 2] 1237 	aslb
   079C 49            [ 2] 1238 	rola
   079D 58            [ 2] 1239 	aslb
   079E 49            [ 2] 1240 	rola
   079F ED 66         [ 6] 1241 	std	6,s
                           1242 	; ldd	6,s	; optimization 5
   07A1 A3 68         [ 7] 1243 	subd	8,s	;subhi: R:d -= 8,s
   07A3 ED 66         [ 6] 1244 	std	6,s
                           1245 	; ldd	6,s	; optimization 5
   07A5 A3 6E         [ 7] 1246 	subd	14,s	;subhi: R:d -= 14,s
   07A7 ED 66         [ 6] 1247 	std	6,s
                           1248 	; ldd	6,s	; optimization 5
   07A9 58            [ 2] 1249 	aslb
   07AA 49            [ 2] 1250 	rola
   07AB ED 66         [ 6] 1251 	std	6,s
   07AD 1E 01         [ 8] 1252 	exg	d,x
   07AF E3 66         [ 7] 1253 	addd	6,s
   07B1 1E 01         [ 8] 1254 	exg	d,x
   07B3 30 89 00 03   [ 8] 1255 	leax	_waveData+2,x
   07B7 E6 84         [ 4] 1256 	ldb	,x
   07B9 E7 E8 6C      [ 5] 1257 	stb	108,s
   07BC E6 E8 69      [ 5] 1258 	ldb	105,s
   07BF 4F            [ 2] 1259 	clra		;zero_extendqihi: R:b -> R:d
   07C0 1F 01         [ 6] 1260 	tfr	d,x
   07C2 AF 64         [ 6] 1261 	stx	4,s
   07C4 EC 64         [ 6] 1262 	ldd	4,s
   07C6 58            [ 2] 1263 	aslb
   07C7 49            [ 2] 1264 	rola
   07C8 58            [ 2] 1265 	aslb
   07C9 49            [ 2] 1266 	rola
   07CA 58            [ 2] 1267 	aslb
   07CB 49            [ 2] 1268 	rola
   07CC ED 64         [ 6] 1269 	std	4,s
                           1270 	; ldd	4,s	; optimization 5
   07CE 34 10         [ 6] 1271 	pshs	x	;subhi: R:d -= R:x
   07D0 A3 E1         [ 9] 1272 	subd	,s++
   07D2 ED 64         [ 6] 1273 	std	4,s
   07D4 EE 64         [ 6] 1274 	ldu	4,s
   07D6 30 C9 00 06   [ 8] 1275 	leax	_enemies+6,u
   07DA E6 E8 6C      [ 5] 1276 	ldb	108,s
   07DD E7 84         [ 4] 1277 	stb	,x
   07DF 6C E8 6E      [ 7] 1278 	inc	110,s
   07E2                    1279 L8:
   07E2 E6 E8 6E      [ 5] 1280 	ldb	110,s
   07E5 E1 E8 6D      [ 5] 1281 	cmpb	109,s	;cmpqi:
   07E8 10 25 FB 66   [ 6] 1282 	lblo	L9
   07EC E6 E8 6D      [ 5] 1283 	ldb	109,s
   07EF E7 E8 6F      [ 5] 1284 	stb	111,s
   07F2 20 25         [ 3] 1285 	bra	L10
   07F4                    1286 L11:
   07F4 E6 E8 6F      [ 5] 1287 	ldb	111,s
   07F7 4F            [ 2] 1288 	clra		;zero_extendqihi: R:b -> R:d
   07F8 1F 01         [ 6] 1289 	tfr	d,x
   07FA AF 62         [ 6] 1290 	stx	2,s
   07FC EC 62         [ 6] 1291 	ldd	2,s
   07FE 58            [ 2] 1292 	aslb
   07FF 49            [ 2] 1293 	rola
   0800 58            [ 2] 1294 	aslb
   0801 49            [ 2] 1295 	rola
   0802 58            [ 2] 1296 	aslb
   0803 49            [ 2] 1297 	rola
   0804 ED 62         [ 6] 1298 	std	2,s
                           1299 	; ldd	2,s	; optimization 5
   0806 34 10         [ 6] 1300 	pshs	x	;subhi: R:d -= R:x
   0808 A3 E1         [ 9] 1301 	subd	,s++
   080A ED 62         [ 6] 1302 	std	2,s
   080C EE 62         [ 6] 1303 	ldu	2,s
   080E 30 C9 00 00   [ 8] 1304 	leax	_enemies,u
   0812 C6 01         [ 2] 1305 	ldb	#1
   0814 E7 84         [ 4] 1306 	stb	,x
   0816 6C E8 6F      [ 7] 1307 	inc	111,s
   0819                    1308 L10:
   0819 E6 E8 6F      [ 5] 1309 	ldb	111,s
   081C C1 04         [ 2] 1310 	cmpb	#4	;cmpqi:
   081E 23 D4         [ 3] 1311 	bls	L11
   0820 32 E8 70      [ 5] 1312 	leas	112,s
   0823 35 E0         [ 8] 1313 	puls	y,u,pc
                           1314 	.globl _handle_enemies
   0825                    1315 _handle_enemies:
   0825 34 40         [ 6] 1316 	pshs	u
   0827 32 77         [ 5] 1317 	leas	-9,s
   0829 6F 68         [ 7] 1318 	clr	8,s
   082B 7E 08 AA      [ 4] 1319 	jmp	L14
   082E                    1320 L16:
   082E E6 68         [ 5] 1321 	ldb	8,s
   0830 4F            [ 2] 1322 	clra		;zero_extendqihi: R:b -> R:d
   0831 1F 01         [ 6] 1323 	tfr	d,x
   0833 AF 66         [ 6] 1324 	stx	6,s
   0835 EC 66         [ 6] 1325 	ldd	6,s
   0837 58            [ 2] 1326 	aslb
   0838 49            [ 2] 1327 	rola
   0839 58            [ 2] 1328 	aslb
   083A 49            [ 2] 1329 	rola
   083B 58            [ 2] 1330 	aslb
   083C 49            [ 2] 1331 	rola
   083D ED 66         [ 6] 1332 	std	6,s
                           1333 	; ldd	6,s	; optimization 5
   083F 34 10         [ 6] 1334 	pshs	x	;subhi: R:d -= R:x
   0841 A3 E1         [ 9] 1335 	subd	,s++
   0843 ED 66         [ 6] 1336 	std	6,s
   0845 EE 66         [ 6] 1337 	ldu	6,s
   0847 30 C9 00 00   [ 8] 1338 	leax	_enemies,u
   084B E6 84         [ 4] 1339 	ldb	,x
                           1340 	; tstb	; optimization 6
   084D 10 26 00 57   [ 6] 1341 	lbne	L15
   0851 E6 68         [ 5] 1342 	ldb	8,s
   0853 4F            [ 2] 1343 	clra		;zero_extendqihi: R:b -> R:d
   0854 1F 01         [ 6] 1344 	tfr	d,x
   0856 AF 64         [ 6] 1345 	stx	4,s
   0858 EC 64         [ 6] 1346 	ldd	4,s
   085A 58            [ 2] 1347 	aslb
   085B 49            [ 2] 1348 	rola
   085C 58            [ 2] 1349 	aslb
   085D 49            [ 2] 1350 	rola
   085E 58            [ 2] 1351 	aslb
   085F 49            [ 2] 1352 	rola
   0860 ED 64         [ 6] 1353 	std	4,s
                           1354 	; ldd	4,s	; optimization 5
   0862 34 10         [ 6] 1355 	pshs	x	;subhi: R:d -= R:x
   0864 A3 E1         [ 9] 1356 	subd	,s++
   0866 CE 00 00      [ 3] 1357 	ldu	#_enemies
   0869 30 CB         [ 8] 1358 	leax	d,u
   086B BD 00 00      [ 8] 1359 	jsr	_move_object
   086E E6 68         [ 5] 1360 	ldb	8,s
   0870 4F            [ 2] 1361 	clra		;zero_extendqihi: R:b -> R:d
   0871 1F 01         [ 6] 1362 	tfr	d,x
   0873 AF 62         [ 6] 1363 	stx	2,s
   0875 EC 62         [ 6] 1364 	ldd	2,s
   0877 58            [ 2] 1365 	aslb
   0878 49            [ 2] 1366 	rola
   0879 58            [ 2] 1367 	aslb
   087A 49            [ 2] 1368 	rola
   087B 58            [ 2] 1369 	aslb
   087C 49            [ 2] 1370 	rola
   087D ED 62         [ 6] 1371 	std	2,s
                           1372 	; ldd	2,s	; optimization 5
   087F 34 10         [ 6] 1373 	pshs	x	;subhi: R:d -= R:x
   0881 A3 E1         [ 9] 1374 	subd	,s++
   0883 CE 00 00      [ 3] 1375 	ldu	#_enemies
   0886 30 CB         [ 8] 1376 	leax	d,u
   0888 BD 02 4E      [ 8] 1377 	jsr	_draw_enemy
   088B E6 68         [ 5] 1378 	ldb	8,s
   088D 4F            [ 2] 1379 	clra		;zero_extendqihi: R:b -> R:d
   088E 1F 01         [ 6] 1380 	tfr	d,x
   0890 AF E4         [ 5] 1381 	stx	,s
   0892 EC E4         [ 5] 1382 	ldd	,s
   0894 58            [ 2] 1383 	aslb
   0895 49            [ 2] 1384 	rola
   0896 58            [ 2] 1385 	aslb
   0897 49            [ 2] 1386 	rola
   0898 58            [ 2] 1387 	aslb
   0899 49            [ 2] 1388 	rola
   089A ED E4         [ 5] 1389 	std	,s
                           1390 	; ldd	,s	; optimization 5
   089C 34 10         [ 6] 1391 	pshs	x	;subhi: R:d -= R:x
   089E A3 E1         [ 9] 1392 	subd	,s++
   08A0 CE 00 00      [ 3] 1393 	ldu	#_enemies
   08A3 30 CB         [ 8] 1394 	leax	d,u
   08A5 BD 02 81      [ 8] 1395 	jsr	_check_enemy
   08A8                    1396 L15:
   08A8 6C 68         [ 7] 1397 	inc	8,s
   08AA                    1398 L14:
   08AA E6 68         [ 5] 1399 	ldb	8,s
   08AC C1 04         [ 2] 1400 	cmpb	#4	;cmpqi:
   08AE 10 23 FF 7C   [ 6] 1401 	lbls	L16
   08B2 32 69         [ 5] 1402 	leas	9,s
   08B4 35 C0         [ 7] 1403 	puls	u,pc
                           1404 	.globl _check_AllEnemysDeath
   08B6                    1405 _check_AllEnemysDeath:
   08B6 34 40         [ 6] 1406 	pshs	u
   08B8 32 7A         [ 5] 1407 	leas	-6,s
   08BA 6F 65         [ 7] 1408 	clr	5,s
   08BC 20 23         [ 3] 1409 	bra	L19
   08BE                    1410 L21:
   08BE E6 65         [ 5] 1411 	ldb	5,s
   08C0 4F            [ 2] 1412 	clra		;zero_extendqihi: R:b -> R:d
   08C1 1F 01         [ 6] 1413 	tfr	d,x
   08C3 AF 61         [ 6] 1414 	stx	1,s
   08C5 EC 61         [ 6] 1415 	ldd	1,s
   08C7 58            [ 2] 1416 	aslb
   08C8 49            [ 2] 1417 	rola
   08C9 58            [ 2] 1418 	aslb
   08CA 49            [ 2] 1419 	rola
   08CB 58            [ 2] 1420 	aslb
   08CC 49            [ 2] 1421 	rola
   08CD ED 61         [ 6] 1422 	std	1,s
                           1423 	; ldd	1,s	; optimization 5
   08CF 34 10         [ 6] 1424 	pshs	x	;subhi: R:d -= R:x
   08D1 A3 E1         [ 9] 1425 	subd	,s++
   08D3 ED 61         [ 6] 1426 	std	1,s
   08D5 EE 61         [ 6] 1427 	ldu	1,s
   08D7 30 C9 00 00   [ 8] 1428 	leax	_enemies,u
   08DB E6 84         [ 4] 1429 	ldb	,x
                           1430 	; tstb	; optimization 6
   08DD 27 27         [ 3] 1431 	beq	L23
   08DF 6C 65         [ 7] 1432 	inc	5,s
   08E1                    1433 L19:
   08E1 E6 65         [ 5] 1434 	ldb	5,s
   08E3 C1 04         [ 2] 1435 	cmpb	#4	;cmpqi:
   08E5 23 D7         [ 3] 1436 	bls	L21
   08E7 F6 00 01      [ 5] 1437 	ldb	_current_wave+1
   08EA E7 E4         [ 4] 1438 	stb	,s
   08EC F6 00 02      [ 5] 1439 	ldb	_current_wave+2
   08EF E7 63         [ 5] 1440 	stb	3,s
                           1441 	; ldb	3,s	; optimization 5
   08F1 5A            [ 2] 1442 	decb
   08F2 E7 64         [ 5] 1443 	stb	4,s
   08F4 E6 E4         [ 4] 1444 	ldb	,s
   08F6 E1 64         [ 5] 1445 	cmpb	4,s	;cmpqi:
   08F8 26 07         [ 3] 1446 	bne	L22
   08FA C6 02         [ 2] 1447 	ldb	#2
   08FC F7 00 03      [ 5] 1448 	stb	_current_wave+3
   08FF 20 05         [ 3] 1449 	bra	L23
   0901                    1450 L22:
   0901 C6 03         [ 2] 1451 	ldb	#3
   0903 F7 00 03      [ 5] 1452 	stb	_current_wave+3
   0906                    1453 L23:
   0906 32 66         [ 5] 1454 	leas	6,s
   0908 35 C0         [ 7] 1455 	puls	u,pc
                           1456 	.area .bss
                           1457 	.globl	_bullets
   0000                    1458 _bullets:	.blkb	60
ASxxxx Assembler V05.00  (Motorola 6809), page 1.
Hexidecimal [16-Bits]

Symbol Table

    .__.$$$.       =   2710 L   |     .__.ABS.       =   0000 G
    .__.CPU.       =   0000 L   |     .__.H$L.       =   0001 L
  2 L10                0819 R   |   2 L11                07F4 R
  2 L14                08AA R   |   2 L15                08A8 R
  2 L16                082E R   |   2 L19                08E1 R
  2 L21                08BE R   |   2 L22                0901 R
  2 L23                0906 R   |   2 L5                 02D7 R
  2 L6                 02DA R   |   2 L8                 07E2 R
  2 L9                 0352 R   |   2 _MAX_LEVELS        0000 GR
    __Moveto_d         **** GX  |     ___Draw_VLp        **** GX
    ___Reset0Ref       **** GX  |     _bang              **** GX
  4 _bullets           0000 GR  |   2 _check_AllEnem     08B6 GR
    _check_collisi     **** GX  |   2 _check_enemy       0281 GR
    _current_wave      **** GX  |     _dp_VIA_t1_cnt     **** GX
  2 _draw_enemy        024E GR  |   3 _enemies           0000 GR
  2 _handle_enemie     0825 GR  |   2 _init_enemies      02DD GR
    _move_object       **** GX  |     _play_explosio     **** GX
    _tower             **** GX  |   2 _vectors_enemy     0227 GR
  2 _waveData          0001 GR

ASxxxx Assembler V05.00  (Motorola 6809), page 2.
Hexidecimal [16-Bits]

Area Table

[_CSEG]
   0 _CODE            size    0   flags C080
   2 .text            size  90A   flags  100
   3 .data            size   23   flags  100
   4 .bss             size   3C   flags    0
[_DSEG]
   1 _DATA            size    0   flags C0C0

