                              1 
                              2 ;;; gcc for m6809 : Feb 15 2016 21:40:10
                              3 ;;; 4.3.6 (gcc6809)
                              4 ;;; ABI version 1
                              5 ;;; -mint8
                              6 	.module	menu.c
                              7 	.globl _towercost
                              8 	.area .text
   0000                       9 _towercost:
   0000 00 00                10 	.word	0
   0002 00 0A                11 	.word	10
   0004 00 14                12 	.word	20
   0006 00 14                13 	.word	20
   0008 00 28                14 	.word	40
   000A 00 32                15 	.word	50
   000C 00 32                16 	.word	50
   000E 00 64                17 	.word	100
   0010 00 C8                18 	.word	200
   0012 00 64                19 	.word	100
   0014 00 C8                20 	.word	200
   0016 00 FA                21 	.word	250
   0018 00 C8                22 	.word	200
   001A 01 90                23 	.word	400
   001C 02 58                24 	.word	600
   001E 01 F4                25 	.word	500
   0020 03 20                26 	.word	800
   0022 03 84                27 	.word	900
                             28 	.globl _vectors_tower_lvl_1
   0024                      29 _vectors_tower_lvl_1:
   0024 00                   30 	.byte	0
   0025 10                   31 	.byte	16
   0026 00                   32 	.byte	0
   0027 FF                   33 	.byte	-1
   0028 00                   34 	.byte	0
   0029 10                   35 	.byte	16
   002A FF                   36 	.byte	-1
   002B E0                   37 	.byte	-32
   002C 00                   38 	.byte	0
   002D 00                   39 	.byte	0
   002E 20                   40 	.byte	32
   002F 00                   41 	.byte	0
   0030 FF                   42 	.byte	-1
   0031 F0                   43 	.byte	-16
   0032 10                   44 	.byte	16
   0033 FF                   45 	.byte	-1
   0034 F0                   46 	.byte	-16
   0035 F0                   47 	.byte	-16
   0036 FF                   48 	.byte	-1
   0037 00                   49 	.byte	0
   0038 E0                   50 	.byte	-32
   0039 FF                   51 	.byte	-1
   003A 20                   52 	.byte	32
   003B 00                   53 	.byte	0
   003C FF                   54 	.byte	-1
   003D 00                   55 	.byte	0
   003E 10                   56 	.byte	16
   003F 01                   57 	.byte	1
   0040 00                   58 	.byte	0
   0041 00                   59 	.byte	0
                             60 	.globl _vectors_tower_lvl_2
   0042                      61 _vectors_tower_lvl_2:
   0042 00                   62 	.byte	0
   0043 10                   63 	.byte	16
   0044 00                   64 	.byte	0
   0045 FF                   65 	.byte	-1
   0046 00                   66 	.byte	0
   0047 10                   67 	.byte	16
   0048 FF                   68 	.byte	-1
   0049 E0                   69 	.byte	-32
   004A 00                   70 	.byte	0
   004B 00                   71 	.byte	0
   004C 20                   72 	.byte	32
   004D 00                   73 	.byte	0
   004E FF                   74 	.byte	-1
   004F F0                   75 	.byte	-16
   0050 10                   76 	.byte	16
   0051 FF                   77 	.byte	-1
   0052 F0                   78 	.byte	-16
   0053 F0                   79 	.byte	-16
   0054 FF                   80 	.byte	-1
   0055 00                   81 	.byte	0
   0056 E0                   82 	.byte	-32
   0057 FF                   83 	.byte	-1
   0058 20                   84 	.byte	32
   0059 00                   85 	.byte	0
   005A 00                   86 	.byte	0
   005B E0                   87 	.byte	-32
   005C 00                   88 	.byte	0
   005D FF                   89 	.byte	-1
   005E 10                   90 	.byte	16
   005F F0                   91 	.byte	-16
   0060 FF                   92 	.byte	-1
   0061 10                   93 	.byte	16
   0062 10                   94 	.byte	16
   0063 FF                   95 	.byte	-1
   0064 00                   96 	.byte	0
   0065 10                   97 	.byte	16
   0066 01                   98 	.byte	1
   0067 00                   99 	.byte	0
   0068 00                  100 	.byte	0
                            101 	.globl _vectors_tower_lvl_3
   0069                     102 _vectors_tower_lvl_3:
   0069 00                  103 	.byte	0
   006A 20                  104 	.byte	32
   006B 00                  105 	.byte	0
   006C FF                  106 	.byte	-1
   006D F0                  107 	.byte	-16
   006E 10                  108 	.byte	16
   006F FF                  109 	.byte	-1
   0070 00                  110 	.byte	0
   0071 E0                  111 	.byte	-32
   0072 00                  112 	.byte	0
   0073 00                  113 	.byte	0
   0074 20                  114 	.byte	32
   0075 FF                  115 	.byte	-1
   0076 E0                  116 	.byte	-32
   0077 00                  117 	.byte	0
   0078 00                  118 	.byte	0
   0079 20                  119 	.byte	32
   007A 00                  120 	.byte	0
   007B FF                  121 	.byte	-1
   007C F0                  122 	.byte	-16
   007D 10                  123 	.byte	16
   007E FF                  124 	.byte	-1
   007F F0                  125 	.byte	-16
   0080 F0                  126 	.byte	-16
   0081 FF                  127 	.byte	-1
   0082 00                  128 	.byte	0
   0083 E0                  129 	.byte	-32
   0084 FF                  130 	.byte	-1
   0085 20                  131 	.byte	32
   0086 00                  132 	.byte	0
   0087 00                  133 	.byte	0
   0088 E0                  134 	.byte	-32
   0089 00                  135 	.byte	0
   008A FF                  136 	.byte	-1
   008B 10                  137 	.byte	16
   008C F0                  138 	.byte	-16
   008D FF                  139 	.byte	-1
   008E 10                  140 	.byte	16
   008F 10                  141 	.byte	16
   0090 FF                  142 	.byte	-1
   0091 10                  143 	.byte	16
   0092 10                  144 	.byte	16
   0093 01                  145 	.byte	1
   0094 00                  146 	.byte	0
   0095 00                  147 	.byte	0
                            148 	.globl _vectors_tower_lvl_4
   0096                     149 _vectors_tower_lvl_4:
   0096 00                  150 	.byte	0
   0097 20                  151 	.byte	32
   0098 00                  152 	.byte	0
   0099 FF                  153 	.byte	-1
   009A F0                  154 	.byte	-16
   009B 10                  155 	.byte	16
   009C FF                  156 	.byte	-1
   009D 00                  157 	.byte	0
   009E E0                  158 	.byte	-32
   009F 00                  159 	.byte	0
   00A0 00                  160 	.byte	0
   00A1 20                  161 	.byte	32
   00A2 FF                  162 	.byte	-1
   00A3 E0                  163 	.byte	-32
   00A4 00                  164 	.byte	0
   00A5 00                  165 	.byte	0
   00A6 20                  166 	.byte	32
   00A7 00                  167 	.byte	0
   00A8 FF                  168 	.byte	-1
   00A9 F0                  169 	.byte	-16
   00AA 10                  170 	.byte	16
   00AB FF                  171 	.byte	-1
   00AC F0                  172 	.byte	-16
   00AD F0                  173 	.byte	-16
   00AE FF                  174 	.byte	-1
   00AF 00                  175 	.byte	0
   00B0 E0                  176 	.byte	-32
   00B1 00                  177 	.byte	0
   00B2 00                  178 	.byte	0
   00B3 20                  179 	.byte	32
   00B4 FF                  180 	.byte	-1
   00B5 F0                  181 	.byte	-16
   00B6 F0                  182 	.byte	-16
   00B7 FF                  183 	.byte	-1
   00B8 10                  184 	.byte	16
   00B9 F0                  185 	.byte	-16
   00BA FF                  186 	.byte	-1
   00BB 20                  187 	.byte	32
   00BC 00                  188 	.byte	0
   00BD 00                  189 	.byte	0
   00BE E0                  190 	.byte	-32
   00BF 00                  191 	.byte	0
   00C0 FF                  192 	.byte	-1
   00C1 10                  193 	.byte	16
   00C2 F0                  194 	.byte	-16
   00C3 FF                  195 	.byte	-1
   00C4 10                  196 	.byte	16
   00C5 10                  197 	.byte	16
   00C6 FF                  198 	.byte	-1
   00C7 10                  199 	.byte	16
   00C8 10                  200 	.byte	16
   00C9 01                  201 	.byte	1
   00CA 00                  202 	.byte	0
   00CB 00                  203 	.byte	0
                            204 	.globl _vectors_tower_lvl_5
   00CC                     205 _vectors_tower_lvl_5:
   00CC 00                  206 	.byte	0
   00CD 28                  207 	.byte	40
   00CE 00                  208 	.byte	0
   00CF FF                  209 	.byte	-1
   00D0 00                  210 	.byte	0
   00D1 18                  211 	.byte	24
   00D2 FF                  212 	.byte	-1
   00D3 D8                  213 	.byte	-40
   00D4 18                  214 	.byte	24
   00D5 FF                  215 	.byte	-1
   00D6 D8                  216 	.byte	-40
   00D7 E8                  217 	.byte	-24
   00D8 FF                  218 	.byte	-1
   00D9 00                  219 	.byte	0
   00DA D0                  220 	.byte	-48
   00DB FF                  221 	.byte	-1
   00DC 28                  222 	.byte	40
   00DD E8                  223 	.byte	-24
   00DE FF                  224 	.byte	-1
   00DF 28                  225 	.byte	40
   00E0 18                  226 	.byte	24
   00E1 FF                  227 	.byte	-1
   00E2 00                  228 	.byte	0
   00E3 18                  229 	.byte	24
   00E4 01                  230 	.byte	1
   00E5 00                  231 	.byte	0
   00E6 00                  232 	.byte	0
                            233 	.globl _vectors_tower_lvl_6
   00E7                     234 _vectors_tower_lvl_6:
   00E7 00                  235 	.byte	0
   00E8 50                  236 	.byte	80
   00E9 00                  237 	.byte	0
   00EA FF                  238 	.byte	-1
   00EB 00                  239 	.byte	0
   00EC 30                  240 	.byte	48
   00ED FF                  241 	.byte	-1
   00EE B0                  242 	.byte	-80
   00EF 30                  243 	.byte	48
   00F0 FF                  244 	.byte	-1
   00F1 B0                  245 	.byte	-80
   00F2 D0                  246 	.byte	-48
   00F3 FF                  247 	.byte	-1
   00F4 00                  248 	.byte	0
   00F5 A0                  249 	.byte	-96
   00F6 FF                  250 	.byte	-1
   00F7 50                  251 	.byte	80
   00F8 D0                  252 	.byte	-48
   00F9 FF                  253 	.byte	-1
   00FA 50                  254 	.byte	80
   00FB 30                  255 	.byte	48
   00FC FF                  256 	.byte	-1
   00FD 00                  257 	.byte	0
   00FE 30                  258 	.byte	48
   00FF 01                  259 	.byte	1
   0100 00                  260 	.byte	0
   0101 00                  261 	.byte	0
                            262 	.globl _Menu
                            263 	.area .data
   0000                     264 _Menu:
   0000 01                  265 	.byte	1
   0001 00                  266 	.byte	0
                            267 	.area .text
                            268 	.globl _menu_init
   0102                     269 _menu_init:
   0102 C6 01         [ 2]  270 	ldb	#1
   0104 F7 00 00      [ 5]  271 	stb	_Menu
   0107 7F 00 01      [ 7]  272 	clr	_Menu+1
   010A 39            [ 5]  273 	rts
                            274 	.area .data
   0002                     275 _limit.3290:
   0002 02                  276 	.byte	2
                            277 	.area .text
                            278 	.globl _menu_handle
   010B                     279 _menu_handle:
   010B 34 60         [ 7]  280 	pshs	y,u
   010D 32 E8 EE      [ 5]  281 	leas	-18,s
   0110 F6 00 02      [ 5]  282 	ldb	_limit.3290
                            283 	; tstb	; optimization 6
   0113 27 0A         [ 3]  284 	beq	L4
   0115 F6 00 02      [ 5]  285 	ldb	_limit.3290
   0118 5A            [ 2]  286 	decb
   0119 F7 00 02      [ 5]  287 	stb	_limit.3290
   011C 7E 04 21      [ 4]  288 	jmp	L51
   011F                     289 L4:
   011F C6 02         [ 2]  290 	ldb	#2
   0121 F7 00 02      [ 5]  291 	stb	_limit.3290
   0124 BD 00 00      [ 8]  292 	jsr	___Joy_Digital
   0127 BD 00 00      [ 8]  293 	jsr	___Read_Btns
   012A F6 00 00      [ 5]  294 	ldb	_Vec_Buttons
   012D C4 04         [ 2]  295 	andb	#4
   012F 5D            [ 2]  296 	tstb
   0130 27 08         [ 3]  297 	beq	L6
   0132 C6 01         [ 2]  298 	ldb	#1
   0134 F7 00 00      [ 5]  299 	stb	_Menu
   0137 7E 04 21      [ 4]  300 	jmp	L51
   013A                     301 L6:
   013A F6 00 00      [ 5]  302 	ldb	_Vec_Buttons
   013D C4 08         [ 2]  303 	andb	#8
   013F 5D            [ 2]  304 	tstb
   0140 10 27 02 4C   [ 6]  305 	lbeq	L7
   0144 F6 00 01      [ 5]  306 	ldb	_Menu+1
                            307 	; tstb	; optimization 6
   0147 26 36         [ 3]  308 	bne	L8
   0149 F6 00 04      [ 5]  309 	ldb	_player+4
   014C C1 02         [ 2]  310 	cmpb	#2	;cmpqi:
   014E 10 26 02 CF   [ 6]  311 	lbne	L51
   0152 F6 00 00      [ 5]  312 	ldb	_player
   0155 E7 6A         [ 5]  313 	stb	10,s
                            314 	; ldb	10,s	; optimization 5
   0157 C1 01         [ 2]  315 	cmpb	#1	;cmpqi:
   0159 27 16         [ 3]  316 	beq	L12
   015B E6 6A         [ 5]  317 	ldb	10,s
   015D C1 01         [ 2]  318 	cmpb	#1	;cmpqi:
   015F 25 08         [ 3]  319 	blo	L11
                            320 	; ldb	10,s; optimization 8
   0161 C1 02         [ 2]  321 	cmpb	#2	;cmpqi:
   0163 10 27 02 BA   [ 6]  322 	lbeq	L51
   0167 20 10         [ 3]  323 	bra	L52
   0169                     324 L11:
   0169 C6 01         [ 2]  325 	ldb	#1
   016B F7 00 00      [ 5]  326 	stb	_player
   016E 7E 04 21      [ 4]  327 	jmp	L51
   0171                     328 L12:
   0171 C6 02         [ 2]  329 	ldb	#2
   0173 F7 00 00      [ 5]  330 	stb	_player
   0176 7E 04 21      [ 4]  331 	jmp	L51
   0179                     332 L52:
   0179 7F 00 00      [ 7]  333 	clr	_player
   017C 7E 04 21      [ 4]  334 	jmp	L51
   017F                     335 L8:
   017F F6 00 01      [ 5]  336 	ldb	_Menu+1
   0182 C1 01         [ 2]  337 	cmpb	#1	;cmpqi:
   0184 26 2D         [ 3]  338 	bne	L15
   0186 F6 00 04      [ 5]  339 	ldb	_player+4
   0189 E7 6B         [ 5]  340 	stb	11,s
                            341 	; ldb	11,s	; optimization 5
   018B C1 01         [ 2]  342 	cmpb	#1	;cmpqi:
   018D 27 16         [ 3]  343 	beq	L18
   018F E6 6B         [ 5]  344 	ldb	11,s
   0191 C1 01         [ 2]  345 	cmpb	#1	;cmpqi:
   0193 25 08         [ 3]  346 	blo	L17
                            347 	; ldb	11,s; optimization 8
   0195 C1 02         [ 2]  348 	cmpb	#2	;cmpqi:
   0197 10 27 02 86   [ 6]  349 	lbeq	L51
   019B 20 10         [ 3]  350 	bra	L53
   019D                     351 L17:
   019D C6 01         [ 2]  352 	ldb	#1
   019F F7 00 04      [ 5]  353 	stb	_player+4
   01A2 7E 04 21      [ 4]  354 	jmp	L51
   01A5                     355 L18:
   01A5 C6 02         [ 2]  356 	ldb	#2
   01A7 F7 00 04      [ 5]  357 	stb	_player+4
   01AA 7E 04 21      [ 4]  358 	jmp	L51
   01AD                     359 L53:
   01AD 7F 00 04      [ 7]  360 	clr	_player+4
   01B0 7E 04 21      [ 4]  361 	jmp	L51
   01B3                     362 L15:
   01B3 F6 00 01      [ 5]  363 	ldb	_Menu+1
   01B6 C1 02         [ 2]  364 	cmpb	#2	;cmpqi:
   01B8 10 26 00 E7   [ 6]  365 	lbne	L21
   01BC F6 00 02      [ 5]  366 	ldb	_tower+2
   01BF C1 02         [ 2]  367 	cmpb	#2	;cmpqi:
   01C1 10 26 02 5C   [ 6]  368 	lbne	L51
   01C5 F6 00 01      [ 5]  369 	ldb	_tower+1
   01C8 E7 6C         [ 5]  370 	stb	12,s
                            371 	; ldb	12,s	; optimization 5
   01CA C1 04         [ 2]  372 	cmpb	#4	;cmpqi:
   01CC 10 22 02 51   [ 6]  373 	lbhi	L51
   01D0 E6 6C         [ 5]  374 	ldb	12,s
   01D2 4F            [ 2]  375 	clra		;zero_extendqihi: R:b -> R:d
   01D3 ED E4         [ 5]  376 	std	,s
                            377 	; ldd	,s	; optimization 5
   01D5 58            [ 2]  378 	aslb
   01D6 49            [ 2]  379 	rola
   01D7 CE 01 E0      [ 3]  380 	ldu	#L28
   01DA 30 CB         [ 8]  381 	leax	d,u
   01DC AE 84         [ 5]  382 	ldx	,x
   01DE 6E 84         [ 3]  383 	jmp	,x
   01E0                     384 L28:
   01E0 01 EA               385 	.word L23
   01E2 02 0F               386 	.word L24
   01E4 02 34               387 	.word L25
   01E6 02 59               388 	.word L26
   01E8 02 7E               389 	.word L27
   01EA                     390 L23:
   01EA 10 BE 00 02   [ 7]  391 	ldy	_player+2
   01EE BE 00 06      [ 6]  392 	ldx	_towercost+6
   01F1 34 10         [ 6]  393 	pshs	x	;cmphi: R:x with R:y
   01F3 10 AC E1      [10]  394 	cmpy	,s++	;cmphi:
   01F6 10 23 02 27   [ 6]  395 	lbls	L51
   01FA FC 00 02      [ 6]  396 	ldd	_player+2
   01FD BE 00 06      [ 6]  397 	ldx	_towercost+6
   0200 34 10         [ 6]  398 	pshs	x	;subhi: R:d -= R:x
   0202 A3 E1         [ 9]  399 	subd	,s++
   0204 FD 00 02      [ 6]  400 	std	_player+2
   0207 C6 01         [ 2]  401 	ldb	#1
   0209 BD 00 00      [ 8]  402 	jsr	_set_tower
   020C 7E 04 21      [ 4]  403 	jmp	L51
   020F                     404 L24:
   020F 10 BE 00 02   [ 7]  405 	ldy	_player+2
   0213 BE 00 0C      [ 6]  406 	ldx	_towercost+12
   0216 34 10         [ 6]  407 	pshs	x	;cmphi: R:x with R:y
   0218 10 AC E1      [10]  408 	cmpy	,s++	;cmphi:
   021B 10 23 02 02   [ 6]  409 	lbls	L51
   021F FC 00 02      [ 6]  410 	ldd	_player+2
   0222 BE 00 0C      [ 6]  411 	ldx	_towercost+12
   0225 34 10         [ 6]  412 	pshs	x	;subhi: R:d -= R:x
   0227 A3 E1         [ 9]  413 	subd	,s++
   0229 FD 00 02      [ 6]  414 	std	_player+2
   022C C6 02         [ 2]  415 	ldb	#2
   022E BD 00 00      [ 8]  416 	jsr	_set_tower
   0231 7E 04 21      [ 4]  417 	jmp	L51
   0234                     418 L25:
   0234 10 BE 00 02   [ 7]  419 	ldy	_player+2
   0238 BE 00 12      [ 6]  420 	ldx	_towercost+18
   023B 34 10         [ 6]  421 	pshs	x	;cmphi: R:x with R:y
   023D 10 AC E1      [10]  422 	cmpy	,s++	;cmphi:
   0240 10 23 01 DD   [ 6]  423 	lbls	L51
   0244 FC 00 02      [ 6]  424 	ldd	_player+2
   0247 BE 00 12      [ 6]  425 	ldx	_towercost+18
   024A 34 10         [ 6]  426 	pshs	x	;subhi: R:d -= R:x
   024C A3 E1         [ 9]  427 	subd	,s++
   024E FD 00 02      [ 6]  428 	std	_player+2
   0251 C6 03         [ 2]  429 	ldb	#3
   0253 BD 00 00      [ 8]  430 	jsr	_set_tower
   0256 7E 04 21      [ 4]  431 	jmp	L51
   0259                     432 L26:
   0259 10 BE 00 02   [ 7]  433 	ldy	_player+2
   025D BE 00 18      [ 6]  434 	ldx	_towercost+24
   0260 34 10         [ 6]  435 	pshs	x	;cmphi: R:x with R:y
   0262 10 AC E1      [10]  436 	cmpy	,s++	;cmphi:
   0265 10 23 01 B8   [ 6]  437 	lbls	L51
   0269 FC 00 02      [ 6]  438 	ldd	_player+2
   026C BE 00 18      [ 6]  439 	ldx	_towercost+24
   026F 34 10         [ 6]  440 	pshs	x	;subhi: R:d -= R:x
   0271 A3 E1         [ 9]  441 	subd	,s++
   0273 FD 00 02      [ 6]  442 	std	_player+2
   0276 C6 04         [ 2]  443 	ldb	#4
   0278 BD 00 00      [ 8]  444 	jsr	_set_tower
   027B 7E 04 21      [ 4]  445 	jmp	L51
   027E                     446 L27:
   027E 10 BE 00 02   [ 7]  447 	ldy	_player+2
   0282 BE 00 1E      [ 6]  448 	ldx	_towercost+30
   0285 34 10         [ 6]  449 	pshs	x	;cmphi: R:x with R:y
   0287 10 AC E1      [10]  450 	cmpy	,s++	;cmphi:
   028A 10 23 01 93   [ 6]  451 	lbls	L51
   028E FC 00 02      [ 6]  452 	ldd	_player+2
   0291 BE 00 1E      [ 6]  453 	ldx	_towercost+30
   0294 34 10         [ 6]  454 	pshs	x	;subhi: R:d -= R:x
   0296 A3 E1         [ 9]  455 	subd	,s++
   0298 FD 00 02      [ 6]  456 	std	_player+2
   029B C6 05         [ 2]  457 	ldb	#5
   029D BD 00 00      [ 8]  458 	jsr	_set_tower
   02A0 7E 04 21      [ 4]  459 	jmp	L51
   02A3                     460 L21:
   02A3 F6 00 01      [ 5]  461 	ldb	_Menu+1
   02A6 C1 03         [ 2]  462 	cmpb	#3	;cmpqi:
   02A8 10 26 01 75   [ 6]  463 	lbne	L51
   02AC F6 00 02      [ 5]  464 	ldb	_tower+2
   02AF E7 6D         [ 5]  465 	stb	13,s
                            466 	; ldb	13,s	; optimization 5
   02B1 C1 01         [ 2]  467 	cmpb	#1	;cmpqi:
   02B3 10 27 00 71   [ 6]  468 	lbeq	L35
   02B7 E6 6D         [ 5]  469 	ldb	13,s
   02B9 C1 01         [ 2]  470 	cmpb	#1	;cmpqi:
   02BB 25 09         [ 3]  471 	blo	L34
                            472 	; ldb	13,s; optimization 8
   02BD C1 02         [ 2]  473 	cmpb	#2	;cmpqi:
   02BF 10 27 01 5E   [ 6]  474 	lbeq	L51
   02C3 7E 03 8A      [ 4]  475 	jmp	L54
   02C6                     476 L34:
   02C6 10 BE 00 02   [ 7]  477 	ldy	_player+2
   02CA F6 00 01      [ 5]  478 	ldb	_tower+1
   02CD 4F            [ 2]  479 	clra		;zero_extendqihi: R:b -> R:d
   02CE 1F 01         [ 6]  480 	tfr	d,x
   02D0 AF 68         [ 6]  481 	stx	8,s
   02D2 EC 68         [ 6]  482 	ldd	8,s
   02D4 58            [ 2]  483 	aslb
   02D5 49            [ 2]  484 	rola
   02D6 ED 68         [ 6]  485 	std	8,s
                            486 	; ldd	8,s	; optimization 5
   02D8 30 8B         [ 8]  487 	leax	d,x
   02DA AF 68         [ 6]  488 	stx	8,s
   02DC EC 68         [ 6]  489 	ldd	8,s
   02DE C3 00 01      [ 4]  490 	addd	#1
   02E1 58            [ 2]  491 	aslb
   02E2 49            [ 2]  492 	rola
   02E3 CE 00 00      [ 3]  493 	ldu	#_towercost
   02E6 30 CB         [ 8]  494 	leax	d,u
   02E8 AE 84         [ 5]  495 	ldx	,x
   02EA 34 10         [ 6]  496 	pshs	x	;cmphi: R:x with R:y
   02EC 10 AC E1      [10]  497 	cmpy	,s++	;cmphi:
   02EF 10 23 01 2E   [ 6]  498 	lbls	L51
   02F3 10 BE 00 02   [ 7]  499 	ldy	_player+2
   02F7 F6 00 01      [ 5]  500 	ldb	_tower+1
   02FA 4F            [ 2]  501 	clra		;zero_extendqihi: R:b -> R:d
   02FB 1F 01         [ 6]  502 	tfr	d,x
   02FD AF 66         [ 6]  503 	stx	6,s
   02FF EC 66         [ 6]  504 	ldd	6,s
   0301 58            [ 2]  505 	aslb
   0302 49            [ 2]  506 	rola
   0303 ED 66         [ 6]  507 	std	6,s
                            508 	; ldd	6,s	; optimization 5
   0305 30 8B         [ 8]  509 	leax	d,x
   0307 AF 66         [ 6]  510 	stx	6,s
   0309 EC 66         [ 6]  511 	ldd	6,s
   030B C3 00 01      [ 4]  512 	addd	#1
   030E 58            [ 2]  513 	aslb
   030F 49            [ 2]  514 	rola
   0310 CE 00 00      [ 3]  515 	ldu	#_towercost
   0313 30 CB         [ 8]  516 	leax	d,u
   0315 AE 84         [ 5]  517 	ldx	,x
   0317 1F 20         [ 6]  518 	tfr	y,d
   0319 34 10         [ 6]  519 	pshs	x	;subhi: R:d -= R:x
   031B A3 E1         [ 9]  520 	subd	,s++
   031D FD 00 02      [ 6]  521 	std	_player+2
   0320 C6 01         [ 2]  522 	ldb	#1
   0322 F7 00 02      [ 5]  523 	stb	_tower+2
   0325 7E 04 21      [ 4]  524 	jmp	L51
   0328                     525 L35:
   0328 10 BE 00 02   [ 7]  526 	ldy	_player+2
   032C F6 00 01      [ 5]  527 	ldb	_tower+1
   032F 4F            [ 2]  528 	clra		;zero_extendqihi: R:b -> R:d
   0330 1F 01         [ 6]  529 	tfr	d,x
   0332 AF 64         [ 6]  530 	stx	4,s
   0334 EC 64         [ 6]  531 	ldd	4,s
   0336 58            [ 2]  532 	aslb
   0337 49            [ 2]  533 	rola
   0338 ED 64         [ 6]  534 	std	4,s
                            535 	; ldd	4,s	; optimization 5
   033A 30 8B         [ 8]  536 	leax	d,x
   033C AF 64         [ 6]  537 	stx	4,s
   033E EC 64         [ 6]  538 	ldd	4,s
   0340 58            [ 2]  539 	aslb
   0341 49            [ 2]  540 	rola
   0342 ED 64         [ 6]  541 	std	4,s
   0344 EE 64         [ 6]  542 	ldu	4,s
   0346 30 C9 00 04   [ 8]  543 	leax	_towercost+4,u
   034A AE 84         [ 5]  544 	ldx	,x
   034C 34 10         [ 6]  545 	pshs	x	;cmphi: R:x with R:y
   034E 10 AC E1      [10]  546 	cmpy	,s++	;cmphi:
   0351 10 23 00 CC   [ 6]  547 	lbls	L51
   0355 10 BE 00 02   [ 7]  548 	ldy	_player+2
   0359 F6 00 01      [ 5]  549 	ldb	_tower+1
   035C 4F            [ 2]  550 	clra		;zero_extendqihi: R:b -> R:d
   035D 1F 01         [ 6]  551 	tfr	d,x
   035F AF 62         [ 6]  552 	stx	2,s
   0361 EC 62         [ 6]  553 	ldd	2,s
   0363 58            [ 2]  554 	aslb
   0364 49            [ 2]  555 	rola
   0365 ED 62         [ 6]  556 	std	2,s
                            557 	; ldd	2,s	; optimization 5
   0367 30 8B         [ 8]  558 	leax	d,x
   0369 AF 62         [ 6]  559 	stx	2,s
   036B EC 62         [ 6]  560 	ldd	2,s
   036D 58            [ 2]  561 	aslb
   036E 49            [ 2]  562 	rola
   036F ED 62         [ 6]  563 	std	2,s
   0371 EE 62         [ 6]  564 	ldu	2,s
   0373 30 C9 00 04   [ 8]  565 	leax	_towercost+4,u
   0377 AE 84         [ 5]  566 	ldx	,x
   0379 1F 20         [ 6]  567 	tfr	y,d
   037B 34 10         [ 6]  568 	pshs	x	;subhi: R:d -= R:x
   037D A3 E1         [ 9]  569 	subd	,s++
   037F FD 00 02      [ 6]  570 	std	_player+2
   0382 C6 02         [ 2]  571 	ldb	#2
   0384 F7 00 02      [ 5]  572 	stb	_tower+2
   0387 7E 04 21      [ 4]  573 	jmp	L51
   038A                     574 L54:
   038A 7F 00 02      [ 7]  575 	clr	_tower+2
   038D 7E 04 21      [ 4]  576 	jmp	L51
   0390                     577 L7:
   0390 F6 00 00      [ 5]  578 	ldb	_Vec_Joy_1_Y
   0393 6F E8 10      [ 7]  579 	clr	16,s
   0396 5D            [ 2]  580 	tstb
   0397 2F 05         [ 3]  581 	ble	L39
   0399 C6 01         [ 2]  582 	ldb	#1
   039B E7 E8 10      [ 5]  583 	stb	16,s
   039E                     584 L39:
   039E E6 E8 10      [ 5]  585 	ldb	16,s
                            586 	; tstb	; optimization 6
   03A1 27 38         [ 3]  587 	beq	L40
   03A3 F6 00 01      [ 5]  588 	ldb	_Menu+1
   03A6 E7 6E         [ 5]  589 	stb	14,s
                            590 	; ldb	14,s	; optimization 5
   03A8 C1 01         [ 2]  591 	cmpb	#1	;cmpqi:
   03AA 27 1B         [ 3]  592 	beq	L43
   03AC E6 6E         [ 5]  593 	ldb	14,s
   03AE C1 01         [ 2]  594 	cmpb	#1	;cmpqi:
   03B0 25 0D         [ 3]  595 	blo	L42
                            596 	; ldb	14,s; optimization 8
   03B2 C1 02         [ 2]  597 	cmpb	#2	;cmpqi:
   03B4 27 17         [ 3]  598 	beq	L44
   03B6 E6 6E         [ 5]  599 	ldb	14,s
   03B8 C1 03         [ 2]  600 	cmpb	#3	;cmpqi:
   03BA 27 18         [ 3]  601 	beq	L45
   03BC 7E 04 21      [ 4]  602 	jmp	L51
   03BF                     603 L42:
   03BF C6 03         [ 2]  604 	ldb	#3
   03C1 F7 00 01      [ 5]  605 	stb	_Menu+1
   03C4 7E 04 21      [ 4]  606 	jmp	L51
   03C7                     607 L43:
   03C7 7F 00 01      [ 7]  608 	clr	_Menu+1
   03CA 7E 04 21      [ 4]  609 	jmp	L51
   03CD                     610 L44:
   03CD C6 01         [ 2]  611 	ldb	#1
   03CF F7 00 01      [ 5]  612 	stb	_Menu+1
   03D2 20 4D         [ 3]  613 	bra	L51
   03D4                     614 L45:
   03D4 C6 02         [ 2]  615 	ldb	#2
   03D6 F7 00 01      [ 5]  616 	stb	_Menu+1
   03D9 20 46         [ 3]  617 	bra	L51
   03DB                     618 L40:
   03DB F6 00 00      [ 5]  619 	ldb	_Vec_Joy_1_Y
   03DE 6F E8 11      [ 7]  620 	clr	17,s
   03E1 5D            [ 2]  621 	tstb
   03E2 2C 05         [ 3]  622 	bge	L46
   03E4 C6 01         [ 2]  623 	ldb	#1
   03E6 E7 E8 11      [ 5]  624 	stb	17,s
   03E9                     625 L46:
   03E9 E6 E8 11      [ 5]  626 	ldb	17,s
                            627 	; tstb	; optimization 6
   03EC 27 33         [ 3]  628 	beq	L51
   03EE F6 00 01      [ 5]  629 	ldb	_Menu+1
   03F1 E7 6F         [ 5]  630 	stb	15,s
                            631 	; ldb	15,s	; optimization 5
   03F3 C1 01         [ 2]  632 	cmpb	#1	;cmpqi:
   03F5 27 19         [ 3]  633 	beq	L48
   03F7 E6 6F         [ 5]  634 	ldb	15,s
   03F9 C1 01         [ 2]  635 	cmpb	#1	;cmpqi:
   03FB 25 0C         [ 3]  636 	blo	L47
                            637 	; ldb	15,s; optimization 8
   03FD C1 02         [ 2]  638 	cmpb	#2	;cmpqi:
   03FF 27 16         [ 3]  639 	beq	L49
   0401 E6 6F         [ 5]  640 	ldb	15,s
   0403 C1 03         [ 2]  641 	cmpb	#3	;cmpqi:
   0405 27 17         [ 3]  642 	beq	L50
   0407 20 18         [ 3]  643 	bra	L51
   0409                     644 L47:
   0409 C6 01         [ 2]  645 	ldb	#1
   040B F7 00 01      [ 5]  646 	stb	_Menu+1
   040E 20 11         [ 3]  647 	bra	L51
   0410                     648 L48:
   0410 C6 02         [ 2]  649 	ldb	#2
   0412 F7 00 01      [ 5]  650 	stb	_Menu+1
   0415 20 0A         [ 3]  651 	bra	L51
   0417                     652 L49:
   0417 C6 03         [ 2]  653 	ldb	#3
   0419 F7 00 01      [ 5]  654 	stb	_Menu+1
   041C 20 03         [ 3]  655 	bra	L51
   041E                     656 L50:
   041E 7F 00 01      [ 7]  657 	clr	_Menu+1
   0421                     658 L51:
   0421 32 E8 12      [ 5]  659 	leas	18,s
   0424 35 E0         [ 8]  660 	puls	y,u,pc
                            661 	.globl _menu_open
   0426                     662 _menu_open:
   0426                     663 L56:
   0426 BD 01 0B      [ 8]  664 	jsr	_menu_handle
   0429 BD 04 AA      [ 8]  665 	jsr	_menu_draw
   042C F6 00 00      [ 5]  666 	ldb	_Menu
                            667 	; tstb	; optimization 6
   042F 27 F5         [ 3]  668 	beq	L56
   0431 39            [ 5]  669 	rts
   0432                     670 LC0:
   0432 41                  671 	.byte	0x41
   0433 20                  672 	.byte	0x20
   0434 50                  673 	.byte	0x50
   0435 4C                  674 	.byte	0x4C
   0436 41                  675 	.byte	0x41
   0437 59                  676 	.byte	0x59
   0438 45                  677 	.byte	0x45
   0439 52                  678 	.byte	0x52
   043A 20                  679 	.byte	0x20
   043B 4C                  680 	.byte	0x4C
   043C 56                  681 	.byte	0x56
   043D 4C                  682 	.byte	0x4C
   043E 80                  683 	.byte	0x80
   043F 00                  684 	.byte	0x00
   0440                     685 LC1:
   0440 20                  686 	.byte	0x20
   0441 20                  687 	.byte	0x20
   0442 50                  688 	.byte	0x50
   0443 4C                  689 	.byte	0x4C
   0444 41                  690 	.byte	0x41
   0445 59                  691 	.byte	0x59
   0446 45                  692 	.byte	0x45
   0447 52                  693 	.byte	0x52
   0448 20                  694 	.byte	0x20
   0449 52                  695 	.byte	0x52
   044A 41                  696 	.byte	0x41
   044B 54                  697 	.byte	0x54
   044C 45                  698 	.byte	0x45
   044D 80                  699 	.byte	0x80
   044E 00                  700 	.byte	0x00
   044F                     701 LC2:
   044F 20                  702 	.byte	0x20
   0450 20                  703 	.byte	0x20
   0451 54                  704 	.byte	0x54
   0452 4F                  705 	.byte	0x4F
   0453 57                  706 	.byte	0x57
   0454 45                  707 	.byte	0x45
   0455 52                  708 	.byte	0x52
   0456 20                  709 	.byte	0x20
   0457 4C                  710 	.byte	0x4C
   0458 56                  711 	.byte	0x56
   0459 4C                  712 	.byte	0x4C
   045A 80                  713 	.byte	0x80
   045B 00                  714 	.byte	0x00
   045C                     715 LC3:
   045C 20                  716 	.byte	0x20
   045D 20                  717 	.byte	0x20
   045E 54                  718 	.byte	0x54
   045F 4F                  719 	.byte	0x4F
   0460 57                  720 	.byte	0x57
   0461 45                  721 	.byte	0x45
   0462 52                  722 	.byte	0x52
   0463 20                  723 	.byte	0x20
   0464 52                  724 	.byte	0x52
   0465 41                  725 	.byte	0x41
   0466 54                  726 	.byte	0x54
   0467 45                  727 	.byte	0x45
   0468 80                  728 	.byte	0x80
   0469 00                  729 	.byte	0x00
   046A                     730 LC4:
   046A 20                  731 	.byte	0x20
   046B 20                  732 	.byte	0x20
   046C 50                  733 	.byte	0x50
   046D 4C                  734 	.byte	0x4C
   046E 41                  735 	.byte	0x41
   046F 59                  736 	.byte	0x59
   0470 45                  737 	.byte	0x45
   0471 52                  738 	.byte	0x52
   0472 20                  739 	.byte	0x20
   0473 4C                  740 	.byte	0x4C
   0474 56                  741 	.byte	0x56
   0475 4C                  742 	.byte	0x4C
   0476 80                  743 	.byte	0x80
   0477 00                  744 	.byte	0x00
   0478                     745 LC5:
   0478 41                  746 	.byte	0x41
   0479 20                  747 	.byte	0x20
   047A 50                  748 	.byte	0x50
   047B 4C                  749 	.byte	0x4C
   047C 41                  750 	.byte	0x41
   047D 59                  751 	.byte	0x59
   047E 45                  752 	.byte	0x45
   047F 52                  753 	.byte	0x52
   0480 20                  754 	.byte	0x20
   0481 52                  755 	.byte	0x52
   0482 41                  756 	.byte	0x41
   0483 54                  757 	.byte	0x54
   0484 45                  758 	.byte	0x45
   0485 80                  759 	.byte	0x80
   0486 00                  760 	.byte	0x00
   0487                     761 LC6:
   0487 41                  762 	.byte	0x41
   0488 20                  763 	.byte	0x20
   0489 54                  764 	.byte	0x54
   048A 4F                  765 	.byte	0x4F
   048B 57                  766 	.byte	0x57
   048C 45                  767 	.byte	0x45
   048D 52                  768 	.byte	0x52
   048E 20                  769 	.byte	0x20
   048F 4C                  770 	.byte	0x4C
   0490 56                  771 	.byte	0x56
   0491 4C                  772 	.byte	0x4C
   0492 80                  773 	.byte	0x80
   0493 00                  774 	.byte	0x00
   0494                     775 LC7:
   0494 41                  776 	.byte	0x41
   0495 20                  777 	.byte	0x20
   0496 54                  778 	.byte	0x54
   0497 4F                  779 	.byte	0x4F
   0498 57                  780 	.byte	0x57
   0499 45                  781 	.byte	0x45
   049A 52                  782 	.byte	0x52
   049B 20                  783 	.byte	0x20
   049C 52                  784 	.byte	0x52
   049D 41                  785 	.byte	0x41
   049E 54                  786 	.byte	0x54
   049F 45                  787 	.byte	0x45
   04A0 80                  788 	.byte	0x80
   04A1 00                  789 	.byte	0x00
   04A2                     790 LC8:
   04A2 4D                  791 	.byte	0x4D
   04A3 4F                  792 	.byte	0x4F
   04A4 4E                  793 	.byte	0x4E
   04A5 45                  794 	.byte	0x45
   04A6 59                  795 	.byte	0x59
   04A7 20                  796 	.byte	0x20
   04A8 80                  797 	.byte	0x80
   04A9 00                  798 	.byte	0x00
                            799 	.globl _menu_draw
   04AA                     800 _menu_draw:
   04AA 34 40         [ 6]  801 	pshs	u
   04AC 32 E8 EE      [ 5]  802 	leas	-18,s
   04AF BD 00 00      [ 8]  803 	jsr	___Reset0Ref
   04B2 BD 00 00      [ 8]  804 	jsr	_Sync
   04B5 F6 00 01      [ 5]  805 	ldb	_Menu+1
                            806 	; tstb	; optimization 6
   04B8 10 26 01 E1   [ 6]  807 	lbne	L59
   04BC C6 92         [ 2]  808 	ldb	#-110
   04BE E7 E2         [ 6]  809 	stb	,-s
   04C0 8E 04 32      [ 3]  810 	ldx	#LC0
   04C3 C6 64         [ 2]  811 	ldb	#100
   04C5 BD 00 00      [ 8]  812 	jsr	_print_string
   04C8 32 61         [ 5]  813 	leas	1,s
   04CA F6 00 00      [ 5]  814 	ldb	_player
   04CD E7 62         [ 5]  815 	stb	2,s
                            816 	; ldb	2,s	; optimization 5
   04CF C1 01         [ 2]  817 	cmpb	#1	;cmpqi:
   04D1 27 1D         [ 3]  818 	beq	L62
   04D3 E6 62         [ 5]  819 	ldb	2,s
   04D5 C1 01         [ 2]  820 	cmpb	#1	;cmpqi:
   04D7 25 06         [ 3]  821 	blo	L61
                            822 	; ldb	2,s; optimization 8
   04D9 C1 02         [ 2]  823 	cmpb	#2	;cmpqi:
   04DB 27 24         [ 3]  824 	beq	L63
   04DD 20 33         [ 3]  825 	bra	L159
   04DF                     826 L61:
   04DF C6 01         [ 2]  827 	ldb	#1
   04E1 E7 E2         [ 6]  828 	stb	,-s
   04E3 C6 28         [ 2]  829 	ldb	#40
   04E5 E7 E2         [ 6]  830 	stb	,-s
   04E7 C6 64         [ 2]  831 	ldb	#100
   04E9 BD 00 00      [ 8]  832 	jsr	_print_unsigned_int
   04EC 32 62         [ 5]  833 	leas	2,s
   04EE 20 31         [ 3]  834 	bra	L64
   04F0                     835 L62:
   04F0 C6 02         [ 2]  836 	ldb	#2
   04F2 E7 E2         [ 6]  837 	stb	,-s
   04F4 C6 28         [ 2]  838 	ldb	#40
   04F6 E7 E2         [ 6]  839 	stb	,-s
   04F8 C6 64         [ 2]  840 	ldb	#100
   04FA BD 00 00      [ 8]  841 	jsr	_print_unsigned_int
   04FD 32 62         [ 5]  842 	leas	2,s
   04FF 20 20         [ 3]  843 	bra	L64
   0501                     844 L63:
   0501 C6 03         [ 2]  845 	ldb	#3
   0503 E7 E2         [ 6]  846 	stb	,-s
   0505 C6 28         [ 2]  847 	ldb	#40
   0507 E7 E2         [ 6]  848 	stb	,-s
   0509 C6 64         [ 2]  849 	ldb	#100
   050B BD 00 00      [ 8]  850 	jsr	_print_unsigned_int
   050E 32 62         [ 5]  851 	leas	2,s
   0510 20 0F         [ 3]  852 	bra	L64
   0512                     853 L159:
   0512 C6 64         [ 2]  854 	ldb	#100
   0514 E7 E2         [ 6]  855 	stb	,-s
   0516 C6 28         [ 2]  856 	ldb	#40
   0518 E7 E2         [ 6]  857 	stb	,-s
   051A C6 64         [ 2]  858 	ldb	#100
   051C BD 00 00      [ 8]  859 	jsr	_print_unsigned_int
   051F 32 62         [ 5]  860 	leas	2,s
   0521                     861 L64:
   0521 C6 92         [ 2]  862 	ldb	#-110
   0523 E7 E2         [ 6]  863 	stb	,-s
   0525 8E 04 40      [ 3]  864 	ldx	#LC1
   0528 C6 3C         [ 2]  865 	ldb	#60
   052A BD 00 00      [ 8]  866 	jsr	_print_string
   052D 32 61         [ 5]  867 	leas	1,s
   052F F6 00 04      [ 5]  868 	ldb	_player+4
   0532 E7 63         [ 5]  869 	stb	3,s
                            870 	; ldb	3,s	; optimization 5
   0534 C1 01         [ 2]  871 	cmpb	#1	;cmpqi:
   0536 27 1D         [ 3]  872 	beq	L67
   0538 E6 63         [ 5]  873 	ldb	3,s
   053A C1 01         [ 2]  874 	cmpb	#1	;cmpqi:
   053C 25 06         [ 3]  875 	blo	L66
                            876 	; ldb	3,s; optimization 8
   053E C1 02         [ 2]  877 	cmpb	#2	;cmpqi:
   0540 27 24         [ 3]  878 	beq	L68
   0542 20 33         [ 3]  879 	bra	L160
   0544                     880 L66:
   0544 C6 01         [ 2]  881 	ldb	#1
   0546 E7 E2         [ 6]  882 	stb	,-s
   0548 C6 28         [ 2]  883 	ldb	#40
   054A E7 E2         [ 6]  884 	stb	,-s
   054C C6 3C         [ 2]  885 	ldb	#60
   054E BD 00 00      [ 8]  886 	jsr	_print_unsigned_int
   0551 32 62         [ 5]  887 	leas	2,s
   0553 20 31         [ 3]  888 	bra	L69
   0555                     889 L67:
   0555 C6 02         [ 2]  890 	ldb	#2
   0557 E7 E2         [ 6]  891 	stb	,-s
   0559 C6 28         [ 2]  892 	ldb	#40
   055B E7 E2         [ 6]  893 	stb	,-s
   055D C6 3C         [ 2]  894 	ldb	#60
   055F BD 00 00      [ 8]  895 	jsr	_print_unsigned_int
   0562 32 62         [ 5]  896 	leas	2,s
   0564 20 20         [ 3]  897 	bra	L69
   0566                     898 L68:
   0566 C6 03         [ 2]  899 	ldb	#3
   0568 E7 E2         [ 6]  900 	stb	,-s
   056A C6 28         [ 2]  901 	ldb	#40
   056C E7 E2         [ 6]  902 	stb	,-s
   056E C6 3C         [ 2]  903 	ldb	#60
   0570 BD 00 00      [ 8]  904 	jsr	_print_unsigned_int
   0573 32 62         [ 5]  905 	leas	2,s
   0575 20 0F         [ 3]  906 	bra	L69
   0577                     907 L160:
   0577 C6 64         [ 2]  908 	ldb	#100
   0579 E7 E2         [ 6]  909 	stb	,-s
   057B C6 28         [ 2]  910 	ldb	#40
   057D E7 E2         [ 6]  911 	stb	,-s
   057F C6 3C         [ 2]  912 	ldb	#60
   0581 BD 00 00      [ 8]  913 	jsr	_print_unsigned_int
   0584 32 62         [ 5]  914 	leas	2,s
   0586                     915 L69:
   0586 C6 92         [ 2]  916 	ldb	#-110
   0588 E7 E2         [ 6]  917 	stb	,-s
   058A 8E 04 4F      [ 3]  918 	ldx	#LC2
   058D C6 14         [ 2]  919 	ldb	#20
   058F BD 00 00      [ 8]  920 	jsr	_print_string
   0592 32 61         [ 5]  921 	leas	1,s
   0594 F6 00 01      [ 5]  922 	ldb	_tower+1
   0597 E7 64         [ 5]  923 	stb	4,s
                            924 	; ldb	4,s	; optimization 5
   0599 C1 05         [ 2]  925 	cmpb	#5	;cmpqi:
   059B 10 22 00 84   [ 6]  926 	lbhi	L70
   059F E6 64         [ 5]  927 	ldb	4,s
   05A1 4F            [ 2]  928 	clra		;zero_extendqihi: R:b -> R:d
   05A2 ED E4         [ 5]  929 	std	,s
                            930 	; ldd	,s	; optimization 5
   05A4 58            [ 2]  931 	aslb
   05A5 49            [ 2]  932 	rola
   05A6 CE 05 AF      [ 3]  933 	ldu	#L77
   05A9 30 CB         [ 8]  934 	leax	d,u
   05AB AE 84         [ 5]  935 	ldx	,x
   05AD 6E 84         [ 3]  936 	jmp	,x
   05AF                     937 L77:
   05AF 05 BB               938 	.word L71
   05B1 05 CD               939 	.word L72
   05B3 05 DF               940 	.word L73
   05B5 05 F0               941 	.word L74
   05B7 06 01               942 	.word L75
   05B9 06 12               943 	.word L76
   05BB                     944 L71:
   05BB C6 01         [ 2]  945 	ldb	#1
   05BD E7 E2         [ 6]  946 	stb	,-s
   05BF C6 28         [ 2]  947 	ldb	#40
   05C1 E7 E2         [ 6]  948 	stb	,-s
   05C3 C6 14         [ 2]  949 	ldb	#20
   05C5 BD 00 00      [ 8]  950 	jsr	_print_unsigned_int
   05C8 32 62         [ 5]  951 	leas	2,s
   05CA 7E 06 32      [ 4]  952 	jmp	L78
   05CD                     953 L72:
   05CD C6 02         [ 2]  954 	ldb	#2
   05CF E7 E2         [ 6]  955 	stb	,-s
   05D1 C6 28         [ 2]  956 	ldb	#40
   05D3 E7 E2         [ 6]  957 	stb	,-s
   05D5 C6 14         [ 2]  958 	ldb	#20
   05D7 BD 00 00      [ 8]  959 	jsr	_print_unsigned_int
   05DA 32 62         [ 5]  960 	leas	2,s
   05DC 7E 06 32      [ 4]  961 	jmp	L78
   05DF                     962 L73:
   05DF C6 03         [ 2]  963 	ldb	#3
   05E1 E7 E2         [ 6]  964 	stb	,-s
   05E3 C6 28         [ 2]  965 	ldb	#40
   05E5 E7 E2         [ 6]  966 	stb	,-s
   05E7 C6 14         [ 2]  967 	ldb	#20
   05E9 BD 00 00      [ 8]  968 	jsr	_print_unsigned_int
   05EC 32 62         [ 5]  969 	leas	2,s
   05EE 20 42         [ 3]  970 	bra	L78
   05F0                     971 L74:
   05F0 C6 04         [ 2]  972 	ldb	#4
   05F2 E7 E2         [ 6]  973 	stb	,-s
   05F4 C6 28         [ 2]  974 	ldb	#40
   05F6 E7 E2         [ 6]  975 	stb	,-s
   05F8 C6 14         [ 2]  976 	ldb	#20
   05FA BD 00 00      [ 8]  977 	jsr	_print_unsigned_int
   05FD 32 62         [ 5]  978 	leas	2,s
   05FF 20 31         [ 3]  979 	bra	L78
   0601                     980 L75:
   0601 C6 05         [ 2]  981 	ldb	#5
   0603 E7 E2         [ 6]  982 	stb	,-s
   0605 C6 28         [ 2]  983 	ldb	#40
   0607 E7 E2         [ 6]  984 	stb	,-s
   0609 C6 14         [ 2]  985 	ldb	#20
   060B BD 00 00      [ 8]  986 	jsr	_print_unsigned_int
   060E 32 62         [ 5]  987 	leas	2,s
   0610 20 20         [ 3]  988 	bra	L78
   0612                     989 L76:
   0612 C6 06         [ 2]  990 	ldb	#6
   0614 E7 E2         [ 6]  991 	stb	,-s
   0616 C6 28         [ 2]  992 	ldb	#40
   0618 E7 E2         [ 6]  993 	stb	,-s
   061A C6 14         [ 2]  994 	ldb	#20
   061C BD 00 00      [ 8]  995 	jsr	_print_unsigned_int
   061F 32 62         [ 5]  996 	leas	2,s
   0621 20 0F         [ 3]  997 	bra	L78
   0623                     998 L70:
   0623 C6 64         [ 2]  999 	ldb	#100
   0625 E7 E2         [ 6] 1000 	stb	,-s
   0627 C6 28         [ 2] 1001 	ldb	#40
   0629 E7 E2         [ 6] 1002 	stb	,-s
   062B C6 14         [ 2] 1003 	ldb	#20
   062D BD 00 00      [ 8] 1004 	jsr	_print_unsigned_int
   0630 32 62         [ 5] 1005 	leas	2,s
   0632                    1006 L78:
   0632 C6 92         [ 2] 1007 	ldb	#-110
   0634 E7 E2         [ 6] 1008 	stb	,-s
   0636 8E 04 5C      [ 3] 1009 	ldx	#LC3
   0639 C6 EC         [ 2] 1010 	ldb	#-20
   063B BD 00 00      [ 8] 1011 	jsr	_print_string
   063E 32 61         [ 5] 1012 	leas	1,s
   0640 F6 00 02      [ 5] 1013 	ldb	_tower+2
   0643 E7 65         [ 5] 1014 	stb	5,s
                           1015 	; ldb	5,s	; optimization 5
   0645 C1 01         [ 2] 1016 	cmpb	#1	;cmpqi:
   0647 27 1E         [ 3] 1017 	beq	L81
   0649 E6 65         [ 5] 1018 	ldb	5,s
   064B C1 01         [ 2] 1019 	cmpb	#1	;cmpqi:
   064D 25 06         [ 3] 1020 	blo	L80
                           1021 	; ldb	5,s; optimization 8
   064F C1 02         [ 2] 1022 	cmpb	#2	;cmpqi:
   0651 27 26         [ 3] 1023 	beq	L82
   0653 20 36         [ 3] 1024 	bra	L161
   0655                    1025 L80:
   0655 C6 01         [ 2] 1026 	ldb	#1
   0657 E7 E2         [ 6] 1027 	stb	,-s
   0659 C6 28         [ 2] 1028 	ldb	#40
   065B E7 E2         [ 6] 1029 	stb	,-s
   065D C6 EC         [ 2] 1030 	ldb	#-20
   065F BD 00 00      [ 8] 1031 	jsr	_print_unsigned_int
   0662 32 62         [ 5] 1032 	leas	2,s
   0664 7E 0C 59      [ 4] 1033 	jmp	L84
   0667                    1034 L81:
   0667 C6 02         [ 2] 1035 	ldb	#2
   0669 E7 E2         [ 6] 1036 	stb	,-s
   066B C6 28         [ 2] 1037 	ldb	#40
   066D E7 E2         [ 6] 1038 	stb	,-s
   066F C6 EC         [ 2] 1039 	ldb	#-20
   0671 BD 00 00      [ 8] 1040 	jsr	_print_unsigned_int
   0674 32 62         [ 5] 1041 	leas	2,s
   0676 7E 0C 59      [ 4] 1042 	jmp	L84
   0679                    1043 L82:
   0679 C6 03         [ 2] 1044 	ldb	#3
   067B E7 E2         [ 6] 1045 	stb	,-s
   067D C6 28         [ 2] 1046 	ldb	#40
   067F E7 E2         [ 6] 1047 	stb	,-s
   0681 C6 EC         [ 2] 1048 	ldb	#-20
   0683 BD 00 00      [ 8] 1049 	jsr	_print_unsigned_int
   0686 32 62         [ 5] 1050 	leas	2,s
   0688 7E 0C 59      [ 4] 1051 	jmp	L84
   068B                    1052 L161:
   068B C6 64         [ 2] 1053 	ldb	#100
   068D E7 E2         [ 6] 1054 	stb	,-s
   068F C6 28         [ 2] 1055 	ldb	#40
   0691 E7 E2         [ 6] 1056 	stb	,-s
   0693 C6 EC         [ 2] 1057 	ldb	#-20
   0695 BD 00 00      [ 8] 1058 	jsr	_print_unsigned_int
   0698 32 62         [ 5] 1059 	leas	2,s
   069A 7E 0C 59      [ 4] 1060 	jmp	L84
   069D                    1061 L59:
   069D F6 00 01      [ 5] 1062 	ldb	_Menu+1
   06A0 C1 01         [ 2] 1063 	cmpb	#1	;cmpqi:
   06A2 10 26 01 E1   [ 6] 1064 	lbne	L85
   06A6 C6 92         [ 2] 1065 	ldb	#-110
   06A8 E7 E2         [ 6] 1066 	stb	,-s
   06AA 8E 04 6A      [ 3] 1067 	ldx	#LC4
   06AD C6 64         [ 2] 1068 	ldb	#100
   06AF BD 00 00      [ 8] 1069 	jsr	_print_string
   06B2 32 61         [ 5] 1070 	leas	1,s
   06B4 F6 00 00      [ 5] 1071 	ldb	_player
   06B7 E7 66         [ 5] 1072 	stb	6,s
                           1073 	; ldb	6,s	; optimization 5
   06B9 C1 01         [ 2] 1074 	cmpb	#1	;cmpqi:
   06BB 27 1D         [ 3] 1075 	beq	L88
   06BD E6 66         [ 5] 1076 	ldb	6,s
   06BF C1 01         [ 2] 1077 	cmpb	#1	;cmpqi:
   06C1 25 06         [ 3] 1078 	blo	L87
                           1079 	; ldb	6,s; optimization 8
   06C3 C1 02         [ 2] 1080 	cmpb	#2	;cmpqi:
   06C5 27 24         [ 3] 1081 	beq	L89
   06C7 20 33         [ 3] 1082 	bra	L162
   06C9                    1083 L87:
   06C9 C6 01         [ 2] 1084 	ldb	#1
   06CB E7 E2         [ 6] 1085 	stb	,-s
   06CD C6 28         [ 2] 1086 	ldb	#40
   06CF E7 E2         [ 6] 1087 	stb	,-s
   06D1 C6 64         [ 2] 1088 	ldb	#100
   06D3 BD 00 00      [ 8] 1089 	jsr	_print_unsigned_int
   06D6 32 62         [ 5] 1090 	leas	2,s
   06D8 20 31         [ 3] 1091 	bra	L90
   06DA                    1092 L88:
   06DA C6 02         [ 2] 1093 	ldb	#2
   06DC E7 E2         [ 6] 1094 	stb	,-s
   06DE C6 28         [ 2] 1095 	ldb	#40
   06E0 E7 E2         [ 6] 1096 	stb	,-s
   06E2 C6 64         [ 2] 1097 	ldb	#100
   06E4 BD 00 00      [ 8] 1098 	jsr	_print_unsigned_int
   06E7 32 62         [ 5] 1099 	leas	2,s
   06E9 20 20         [ 3] 1100 	bra	L90
   06EB                    1101 L89:
   06EB C6 03         [ 2] 1102 	ldb	#3
   06ED E7 E2         [ 6] 1103 	stb	,-s
   06EF C6 28         [ 2] 1104 	ldb	#40
   06F1 E7 E2         [ 6] 1105 	stb	,-s
   06F3 C6 64         [ 2] 1106 	ldb	#100
   06F5 BD 00 00      [ 8] 1107 	jsr	_print_unsigned_int
   06F8 32 62         [ 5] 1108 	leas	2,s
   06FA 20 0F         [ 3] 1109 	bra	L90
   06FC                    1110 L162:
   06FC C6 64         [ 2] 1111 	ldb	#100
   06FE E7 E2         [ 6] 1112 	stb	,-s
   0700 C6 28         [ 2] 1113 	ldb	#40
   0702 E7 E2         [ 6] 1114 	stb	,-s
   0704 C6 64         [ 2] 1115 	ldb	#100
   0706 BD 00 00      [ 8] 1116 	jsr	_print_unsigned_int
   0709 32 62         [ 5] 1117 	leas	2,s
   070B                    1118 L90:
   070B C6 92         [ 2] 1119 	ldb	#-110
   070D E7 E2         [ 6] 1120 	stb	,-s
   070F 8E 04 78      [ 3] 1121 	ldx	#LC5
   0712 C6 3C         [ 2] 1122 	ldb	#60
   0714 BD 00 00      [ 8] 1123 	jsr	_print_string
   0717 32 61         [ 5] 1124 	leas	1,s
   0719 F6 00 04      [ 5] 1125 	ldb	_player+4
   071C E7 67         [ 5] 1126 	stb	7,s
                           1127 	; ldb	7,s	; optimization 5
   071E C1 01         [ 2] 1128 	cmpb	#1	;cmpqi:
   0720 27 1D         [ 3] 1129 	beq	L93
   0722 E6 67         [ 5] 1130 	ldb	7,s
   0724 C1 01         [ 2] 1131 	cmpb	#1	;cmpqi:
   0726 25 06         [ 3] 1132 	blo	L92
                           1133 	; ldb	7,s; optimization 8
   0728 C1 02         [ 2] 1134 	cmpb	#2	;cmpqi:
   072A 27 24         [ 3] 1135 	beq	L94
   072C 20 33         [ 3] 1136 	bra	L163
   072E                    1137 L92:
   072E C6 01         [ 2] 1138 	ldb	#1
   0730 E7 E2         [ 6] 1139 	stb	,-s
   0732 C6 28         [ 2] 1140 	ldb	#40
   0734 E7 E2         [ 6] 1141 	stb	,-s
   0736 C6 3C         [ 2] 1142 	ldb	#60
   0738 BD 00 00      [ 8] 1143 	jsr	_print_unsigned_int
   073B 32 62         [ 5] 1144 	leas	2,s
   073D 20 31         [ 3] 1145 	bra	L95
   073F                    1146 L93:
   073F C6 02         [ 2] 1147 	ldb	#2
   0741 E7 E2         [ 6] 1148 	stb	,-s
   0743 C6 28         [ 2] 1149 	ldb	#40
   0745 E7 E2         [ 6] 1150 	stb	,-s
   0747 C6 3C         [ 2] 1151 	ldb	#60
   0749 BD 00 00      [ 8] 1152 	jsr	_print_unsigned_int
   074C 32 62         [ 5] 1153 	leas	2,s
   074E 20 20         [ 3] 1154 	bra	L95
   0750                    1155 L94:
   0750 C6 03         [ 2] 1156 	ldb	#3
   0752 E7 E2         [ 6] 1157 	stb	,-s
   0754 C6 28         [ 2] 1158 	ldb	#40
   0756 E7 E2         [ 6] 1159 	stb	,-s
   0758 C6 3C         [ 2] 1160 	ldb	#60
   075A BD 00 00      [ 8] 1161 	jsr	_print_unsigned_int
   075D 32 62         [ 5] 1162 	leas	2,s
   075F 20 0F         [ 3] 1163 	bra	L95
   0761                    1164 L163:
   0761 C6 64         [ 2] 1165 	ldb	#100
   0763 E7 E2         [ 6] 1166 	stb	,-s
   0765 C6 28         [ 2] 1167 	ldb	#40
   0767 E7 E2         [ 6] 1168 	stb	,-s
   0769 C6 3C         [ 2] 1169 	ldb	#60
   076B BD 00 00      [ 8] 1170 	jsr	_print_unsigned_int
   076E 32 62         [ 5] 1171 	leas	2,s
   0770                    1172 L95:
   0770 C6 92         [ 2] 1173 	ldb	#-110
   0772 E7 E2         [ 6] 1174 	stb	,-s
   0774 8E 04 4F      [ 3] 1175 	ldx	#LC2
   0777 C6 14         [ 2] 1176 	ldb	#20
   0779 BD 00 00      [ 8] 1177 	jsr	_print_string
   077C 32 61         [ 5] 1178 	leas	1,s
   077E F6 00 01      [ 5] 1179 	ldb	_tower+1
   0781 E7 68         [ 5] 1180 	stb	8,s
                           1181 	; ldb	8,s	; optimization 5
   0783 C1 05         [ 2] 1182 	cmpb	#5	;cmpqi:
   0785 10 22 00 84   [ 6] 1183 	lbhi	L96
   0789 E6 68         [ 5] 1184 	ldb	8,s
   078B 4F            [ 2] 1185 	clra		;zero_extendqihi: R:b -> R:d
   078C ED E4         [ 5] 1186 	std	,s
                           1187 	; ldd	,s	; optimization 5
   078E 58            [ 2] 1188 	aslb
   078F 49            [ 2] 1189 	rola
   0790 CE 07 99      [ 3] 1190 	ldu	#L103
   0793 30 CB         [ 8] 1191 	leax	d,u
   0795 AE 84         [ 5] 1192 	ldx	,x
   0797 6E 84         [ 3] 1193 	jmp	,x
   0799                    1194 L103:
   0799 07 A5              1195 	.word L97
   079B 07 B7              1196 	.word L98
   079D 07 C9              1197 	.word L99
   079F 07 DA              1198 	.word L100
   07A1 07 EB              1199 	.word L101
   07A3 07 FC              1200 	.word L102
   07A5                    1201 L97:
   07A5 C6 01         [ 2] 1202 	ldb	#1
   07A7 E7 E2         [ 6] 1203 	stb	,-s
   07A9 C6 28         [ 2] 1204 	ldb	#40
   07AB E7 E2         [ 6] 1205 	stb	,-s
   07AD C6 14         [ 2] 1206 	ldb	#20
   07AF BD 00 00      [ 8] 1207 	jsr	_print_unsigned_int
   07B2 32 62         [ 5] 1208 	leas	2,s
   07B4 7E 08 1C      [ 4] 1209 	jmp	L104
   07B7                    1210 L98:
   07B7 C6 02         [ 2] 1211 	ldb	#2
   07B9 E7 E2         [ 6] 1212 	stb	,-s
   07BB C6 28         [ 2] 1213 	ldb	#40
   07BD E7 E2         [ 6] 1214 	stb	,-s
   07BF C6 14         [ 2] 1215 	ldb	#20
   07C1 BD 00 00      [ 8] 1216 	jsr	_print_unsigned_int
   07C4 32 62         [ 5] 1217 	leas	2,s
   07C6 7E 08 1C      [ 4] 1218 	jmp	L104
   07C9                    1219 L99:
   07C9 C6 03         [ 2] 1220 	ldb	#3
   07CB E7 E2         [ 6] 1221 	stb	,-s
   07CD C6 28         [ 2] 1222 	ldb	#40
   07CF E7 E2         [ 6] 1223 	stb	,-s
   07D1 C6 14         [ 2] 1224 	ldb	#20
   07D3 BD 00 00      [ 8] 1225 	jsr	_print_unsigned_int
   07D6 32 62         [ 5] 1226 	leas	2,s
   07D8 20 42         [ 3] 1227 	bra	L104
   07DA                    1228 L100:
   07DA C6 04         [ 2] 1229 	ldb	#4
   07DC E7 E2         [ 6] 1230 	stb	,-s
   07DE C6 28         [ 2] 1231 	ldb	#40
   07E0 E7 E2         [ 6] 1232 	stb	,-s
   07E2 C6 14         [ 2] 1233 	ldb	#20
   07E4 BD 00 00      [ 8] 1234 	jsr	_print_unsigned_int
   07E7 32 62         [ 5] 1235 	leas	2,s
   07E9 20 31         [ 3] 1236 	bra	L104
   07EB                    1237 L101:
   07EB C6 05         [ 2] 1238 	ldb	#5
   07ED E7 E2         [ 6] 1239 	stb	,-s
   07EF C6 28         [ 2] 1240 	ldb	#40
   07F1 E7 E2         [ 6] 1241 	stb	,-s
   07F3 C6 14         [ 2] 1242 	ldb	#20
   07F5 BD 00 00      [ 8] 1243 	jsr	_print_unsigned_int
   07F8 32 62         [ 5] 1244 	leas	2,s
   07FA 20 20         [ 3] 1245 	bra	L104
   07FC                    1246 L102:
   07FC C6 06         [ 2] 1247 	ldb	#6
   07FE E7 E2         [ 6] 1248 	stb	,-s
   0800 C6 28         [ 2] 1249 	ldb	#40
   0802 E7 E2         [ 6] 1250 	stb	,-s
   0804 C6 14         [ 2] 1251 	ldb	#20
   0806 BD 00 00      [ 8] 1252 	jsr	_print_unsigned_int
   0809 32 62         [ 5] 1253 	leas	2,s
   080B 20 0F         [ 3] 1254 	bra	L104
   080D                    1255 L96:
   080D C6 64         [ 2] 1256 	ldb	#100
   080F E7 E2         [ 6] 1257 	stb	,-s
   0811 C6 28         [ 2] 1258 	ldb	#40
   0813 E7 E2         [ 6] 1259 	stb	,-s
   0815 C6 14         [ 2] 1260 	ldb	#20
   0817 BD 00 00      [ 8] 1261 	jsr	_print_unsigned_int
   081A 32 62         [ 5] 1262 	leas	2,s
   081C                    1263 L104:
   081C C6 92         [ 2] 1264 	ldb	#-110
   081E E7 E2         [ 6] 1265 	stb	,-s
   0820 8E 04 5C      [ 3] 1266 	ldx	#LC3
   0823 C6 EC         [ 2] 1267 	ldb	#-20
   0825 BD 00 00      [ 8] 1268 	jsr	_print_string
   0828 32 61         [ 5] 1269 	leas	1,s
   082A F6 00 02      [ 5] 1270 	ldb	_tower+2
   082D E7 69         [ 5] 1271 	stb	9,s
                           1272 	; ldb	9,s	; optimization 5
   082F C1 01         [ 2] 1273 	cmpb	#1	;cmpqi:
   0831 27 1E         [ 3] 1274 	beq	L107
   0833 E6 69         [ 5] 1275 	ldb	9,s
   0835 C1 01         [ 2] 1276 	cmpb	#1	;cmpqi:
   0837 25 06         [ 3] 1277 	blo	L106
                           1278 	; ldb	9,s; optimization 8
   0839 C1 02         [ 2] 1279 	cmpb	#2	;cmpqi:
   083B 27 26         [ 3] 1280 	beq	L108
   083D 20 36         [ 3] 1281 	bra	L164
   083F                    1282 L106:
   083F C6 01         [ 2] 1283 	ldb	#1
   0841 E7 E2         [ 6] 1284 	stb	,-s
   0843 C6 28         [ 2] 1285 	ldb	#40
   0845 E7 E2         [ 6] 1286 	stb	,-s
   0847 C6 EC         [ 2] 1287 	ldb	#-20
   0849 BD 00 00      [ 8] 1288 	jsr	_print_unsigned_int
   084C 32 62         [ 5] 1289 	leas	2,s
   084E 7E 0C 59      [ 4] 1290 	jmp	L84
   0851                    1291 L107:
   0851 C6 02         [ 2] 1292 	ldb	#2
   0853 E7 E2         [ 6] 1293 	stb	,-s
   0855 C6 28         [ 2] 1294 	ldb	#40
   0857 E7 E2         [ 6] 1295 	stb	,-s
   0859 C6 EC         [ 2] 1296 	ldb	#-20
   085B BD 00 00      [ 8] 1297 	jsr	_print_unsigned_int
   085E 32 62         [ 5] 1298 	leas	2,s
   0860 7E 0C 59      [ 4] 1299 	jmp	L84
   0863                    1300 L108:
   0863 C6 03         [ 2] 1301 	ldb	#3
   0865 E7 E2         [ 6] 1302 	stb	,-s
   0867 C6 28         [ 2] 1303 	ldb	#40
   0869 E7 E2         [ 6] 1304 	stb	,-s
   086B C6 EC         [ 2] 1305 	ldb	#-20
   086D BD 00 00      [ 8] 1306 	jsr	_print_unsigned_int
   0870 32 62         [ 5] 1307 	leas	2,s
   0872 7E 0C 59      [ 4] 1308 	jmp	L84
   0875                    1309 L164:
   0875 C6 64         [ 2] 1310 	ldb	#100
   0877 E7 E2         [ 6] 1311 	stb	,-s
   0879 C6 28         [ 2] 1312 	ldb	#40
   087B E7 E2         [ 6] 1313 	stb	,-s
   087D C6 EC         [ 2] 1314 	ldb	#-20
   087F BD 00 00      [ 8] 1315 	jsr	_print_unsigned_int
   0882 32 62         [ 5] 1316 	leas	2,s
   0884 7E 0C 59      [ 4] 1317 	jmp	L84
   0887                    1318 L85:
   0887 F6 00 01      [ 5] 1319 	ldb	_Menu+1
   088A C1 02         [ 2] 1320 	cmpb	#2	;cmpqi:
   088C 10 26 01 E1   [ 6] 1321 	lbne	L110
   0890 C6 92         [ 2] 1322 	ldb	#-110
   0892 E7 E2         [ 6] 1323 	stb	,-s
   0894 8E 04 6A      [ 3] 1324 	ldx	#LC4
   0897 C6 64         [ 2] 1325 	ldb	#100
   0899 BD 00 00      [ 8] 1326 	jsr	_print_string
   089C 32 61         [ 5] 1327 	leas	1,s
   089E F6 00 00      [ 5] 1328 	ldb	_player
   08A1 E7 6A         [ 5] 1329 	stb	10,s
                           1330 	; ldb	10,s	; optimization 5
   08A3 C1 01         [ 2] 1331 	cmpb	#1	;cmpqi:
   08A5 27 1D         [ 3] 1332 	beq	L113
   08A7 E6 6A         [ 5] 1333 	ldb	10,s
   08A9 C1 01         [ 2] 1334 	cmpb	#1	;cmpqi:
   08AB 25 06         [ 3] 1335 	blo	L112
                           1336 	; ldb	10,s; optimization 8
   08AD C1 02         [ 2] 1337 	cmpb	#2	;cmpqi:
   08AF 27 24         [ 3] 1338 	beq	L114
   08B1 20 33         [ 3] 1339 	bra	L165
   08B3                    1340 L112:
   08B3 C6 01         [ 2] 1341 	ldb	#1
   08B5 E7 E2         [ 6] 1342 	stb	,-s
   08B7 C6 28         [ 2] 1343 	ldb	#40
   08B9 E7 E2         [ 6] 1344 	stb	,-s
   08BB C6 64         [ 2] 1345 	ldb	#100
   08BD BD 00 00      [ 8] 1346 	jsr	_print_unsigned_int
   08C0 32 62         [ 5] 1347 	leas	2,s
   08C2 20 31         [ 3] 1348 	bra	L115
   08C4                    1349 L113:
   08C4 C6 02         [ 2] 1350 	ldb	#2
   08C6 E7 E2         [ 6] 1351 	stb	,-s
   08C8 C6 28         [ 2] 1352 	ldb	#40
   08CA E7 E2         [ 6] 1353 	stb	,-s
   08CC C6 64         [ 2] 1354 	ldb	#100
   08CE BD 00 00      [ 8] 1355 	jsr	_print_unsigned_int
   08D1 32 62         [ 5] 1356 	leas	2,s
   08D3 20 20         [ 3] 1357 	bra	L115
   08D5                    1358 L114:
   08D5 C6 03         [ 2] 1359 	ldb	#3
   08D7 E7 E2         [ 6] 1360 	stb	,-s
   08D9 C6 28         [ 2] 1361 	ldb	#40
   08DB E7 E2         [ 6] 1362 	stb	,-s
   08DD C6 64         [ 2] 1363 	ldb	#100
   08DF BD 00 00      [ 8] 1364 	jsr	_print_unsigned_int
   08E2 32 62         [ 5] 1365 	leas	2,s
   08E4 20 0F         [ 3] 1366 	bra	L115
   08E6                    1367 L165:
   08E6 C6 64         [ 2] 1368 	ldb	#100
   08E8 E7 E2         [ 6] 1369 	stb	,-s
   08EA C6 28         [ 2] 1370 	ldb	#40
   08EC E7 E2         [ 6] 1371 	stb	,-s
   08EE C6 64         [ 2] 1372 	ldb	#100
   08F0 BD 00 00      [ 8] 1373 	jsr	_print_unsigned_int
   08F3 32 62         [ 5] 1374 	leas	2,s
   08F5                    1375 L115:
   08F5 C6 92         [ 2] 1376 	ldb	#-110
   08F7 E7 E2         [ 6] 1377 	stb	,-s
   08F9 8E 04 40      [ 3] 1378 	ldx	#LC1
   08FC C6 3C         [ 2] 1379 	ldb	#60
   08FE BD 00 00      [ 8] 1380 	jsr	_print_string
   0901 32 61         [ 5] 1381 	leas	1,s
   0903 F6 00 04      [ 5] 1382 	ldb	_player+4
   0906 E7 6B         [ 5] 1383 	stb	11,s
                           1384 	; ldb	11,s	; optimization 5
   0908 C1 01         [ 2] 1385 	cmpb	#1	;cmpqi:
   090A 27 1D         [ 3] 1386 	beq	L118
   090C E6 6B         [ 5] 1387 	ldb	11,s
   090E C1 01         [ 2] 1388 	cmpb	#1	;cmpqi:
   0910 25 06         [ 3] 1389 	blo	L117
                           1390 	; ldb	11,s; optimization 8
   0912 C1 02         [ 2] 1391 	cmpb	#2	;cmpqi:
   0914 27 24         [ 3] 1392 	beq	L119
   0916 20 33         [ 3] 1393 	bra	L166
   0918                    1394 L117:
   0918 C6 01         [ 2] 1395 	ldb	#1
   091A E7 E2         [ 6] 1396 	stb	,-s
   091C C6 28         [ 2] 1397 	ldb	#40
   091E E7 E2         [ 6] 1398 	stb	,-s
   0920 C6 3C         [ 2] 1399 	ldb	#60
   0922 BD 00 00      [ 8] 1400 	jsr	_print_unsigned_int
   0925 32 62         [ 5] 1401 	leas	2,s
   0927 20 31         [ 3] 1402 	bra	L120
   0929                    1403 L118:
   0929 C6 02         [ 2] 1404 	ldb	#2
   092B E7 E2         [ 6] 1405 	stb	,-s
   092D C6 28         [ 2] 1406 	ldb	#40
   092F E7 E2         [ 6] 1407 	stb	,-s
   0931 C6 3C         [ 2] 1408 	ldb	#60
   0933 BD 00 00      [ 8] 1409 	jsr	_print_unsigned_int
   0936 32 62         [ 5] 1410 	leas	2,s
   0938 20 20         [ 3] 1411 	bra	L120
   093A                    1412 L119:
   093A C6 03         [ 2] 1413 	ldb	#3
   093C E7 E2         [ 6] 1414 	stb	,-s
   093E C6 28         [ 2] 1415 	ldb	#40
   0940 E7 E2         [ 6] 1416 	stb	,-s
   0942 C6 3C         [ 2] 1417 	ldb	#60
   0944 BD 00 00      [ 8] 1418 	jsr	_print_unsigned_int
   0947 32 62         [ 5] 1419 	leas	2,s
   0949 20 0F         [ 3] 1420 	bra	L120
   094B                    1421 L166:
   094B C6 64         [ 2] 1422 	ldb	#100
   094D E7 E2         [ 6] 1423 	stb	,-s
   094F C6 28         [ 2] 1424 	ldb	#40
   0951 E7 E2         [ 6] 1425 	stb	,-s
   0953 C6 3C         [ 2] 1426 	ldb	#60
   0955 BD 00 00      [ 8] 1427 	jsr	_print_unsigned_int
   0958 32 62         [ 5] 1428 	leas	2,s
   095A                    1429 L120:
   095A C6 92         [ 2] 1430 	ldb	#-110
   095C E7 E2         [ 6] 1431 	stb	,-s
   095E 8E 04 87      [ 3] 1432 	ldx	#LC6
   0961 C6 14         [ 2] 1433 	ldb	#20
   0963 BD 00 00      [ 8] 1434 	jsr	_print_string
   0966 32 61         [ 5] 1435 	leas	1,s
   0968 F6 00 01      [ 5] 1436 	ldb	_tower+1
   096B E7 6C         [ 5] 1437 	stb	12,s
                           1438 	; ldb	12,s	; optimization 5
   096D C1 05         [ 2] 1439 	cmpb	#5	;cmpqi:
   096F 10 22 00 84   [ 6] 1440 	lbhi	L121
   0973 E6 6C         [ 5] 1441 	ldb	12,s
   0975 4F            [ 2] 1442 	clra		;zero_extendqihi: R:b -> R:d
   0976 ED E4         [ 5] 1443 	std	,s
                           1444 	; ldd	,s	; optimization 5
   0978 58            [ 2] 1445 	aslb
   0979 49            [ 2] 1446 	rola
   097A CE 09 83      [ 3] 1447 	ldu	#L128
   097D 30 CB         [ 8] 1448 	leax	d,u
   097F AE 84         [ 5] 1449 	ldx	,x
   0981 6E 84         [ 3] 1450 	jmp	,x
   0983                    1451 L128:
   0983 09 8F              1452 	.word L122
   0985 09 A1              1453 	.word L123
   0987 09 B3              1454 	.word L124
   0989 09 C4              1455 	.word L125
   098B 09 D5              1456 	.word L126
   098D 09 E6              1457 	.word L127
   098F                    1458 L122:
   098F C6 01         [ 2] 1459 	ldb	#1
   0991 E7 E2         [ 6] 1460 	stb	,-s
   0993 C6 28         [ 2] 1461 	ldb	#40
   0995 E7 E2         [ 6] 1462 	stb	,-s
   0997 C6 14         [ 2] 1463 	ldb	#20
   0999 BD 00 00      [ 8] 1464 	jsr	_print_unsigned_int
   099C 32 62         [ 5] 1465 	leas	2,s
   099E 7E 0A 06      [ 4] 1466 	jmp	L129
   09A1                    1467 L123:
   09A1 C6 02         [ 2] 1468 	ldb	#2
   09A3 E7 E2         [ 6] 1469 	stb	,-s
   09A5 C6 28         [ 2] 1470 	ldb	#40
   09A7 E7 E2         [ 6] 1471 	stb	,-s
   09A9 C6 14         [ 2] 1472 	ldb	#20
   09AB BD 00 00      [ 8] 1473 	jsr	_print_unsigned_int
   09AE 32 62         [ 5] 1474 	leas	2,s
   09B0 7E 0A 06      [ 4] 1475 	jmp	L129
   09B3                    1476 L124:
   09B3 C6 03         [ 2] 1477 	ldb	#3
   09B5 E7 E2         [ 6] 1478 	stb	,-s
   09B7 C6 28         [ 2] 1479 	ldb	#40
   09B9 E7 E2         [ 6] 1480 	stb	,-s
   09BB C6 14         [ 2] 1481 	ldb	#20
   09BD BD 00 00      [ 8] 1482 	jsr	_print_unsigned_int
   09C0 32 62         [ 5] 1483 	leas	2,s
   09C2 20 42         [ 3] 1484 	bra	L129
   09C4                    1485 L125:
   09C4 C6 04         [ 2] 1486 	ldb	#4
   09C6 E7 E2         [ 6] 1487 	stb	,-s
   09C8 C6 28         [ 2] 1488 	ldb	#40
   09CA E7 E2         [ 6] 1489 	stb	,-s
   09CC C6 14         [ 2] 1490 	ldb	#20
   09CE BD 00 00      [ 8] 1491 	jsr	_print_unsigned_int
   09D1 32 62         [ 5] 1492 	leas	2,s
   09D3 20 31         [ 3] 1493 	bra	L129
   09D5                    1494 L126:
   09D5 C6 05         [ 2] 1495 	ldb	#5
   09D7 E7 E2         [ 6] 1496 	stb	,-s
   09D9 C6 28         [ 2] 1497 	ldb	#40
   09DB E7 E2         [ 6] 1498 	stb	,-s
   09DD C6 14         [ 2] 1499 	ldb	#20
   09DF BD 00 00      [ 8] 1500 	jsr	_print_unsigned_int
   09E2 32 62         [ 5] 1501 	leas	2,s
   09E4 20 20         [ 3] 1502 	bra	L129
   09E6                    1503 L127:
   09E6 C6 06         [ 2] 1504 	ldb	#6
   09E8 E7 E2         [ 6] 1505 	stb	,-s
   09EA C6 28         [ 2] 1506 	ldb	#40
   09EC E7 E2         [ 6] 1507 	stb	,-s
   09EE C6 14         [ 2] 1508 	ldb	#20
   09F0 BD 00 00      [ 8] 1509 	jsr	_print_unsigned_int
   09F3 32 62         [ 5] 1510 	leas	2,s
   09F5 20 0F         [ 3] 1511 	bra	L129
   09F7                    1512 L121:
   09F7 C6 64         [ 2] 1513 	ldb	#100
   09F9 E7 E2         [ 6] 1514 	stb	,-s
   09FB C6 28         [ 2] 1515 	ldb	#40
   09FD E7 E2         [ 6] 1516 	stb	,-s
   09FF C6 14         [ 2] 1517 	ldb	#20
   0A01 BD 00 00      [ 8] 1518 	jsr	_print_unsigned_int
   0A04 32 62         [ 5] 1519 	leas	2,s
   0A06                    1520 L129:
   0A06 C6 92         [ 2] 1521 	ldb	#-110
   0A08 E7 E2         [ 6] 1522 	stb	,-s
   0A0A 8E 04 5C      [ 3] 1523 	ldx	#LC3
   0A0D C6 EC         [ 2] 1524 	ldb	#-20
   0A0F BD 00 00      [ 8] 1525 	jsr	_print_string
   0A12 32 61         [ 5] 1526 	leas	1,s
   0A14 F6 00 02      [ 5] 1527 	ldb	_tower+2
   0A17 E7 6D         [ 5] 1528 	stb	13,s
                           1529 	; ldb	13,s	; optimization 5
   0A19 C1 01         [ 2] 1530 	cmpb	#1	;cmpqi:
   0A1B 27 1E         [ 3] 1531 	beq	L132
   0A1D E6 6D         [ 5] 1532 	ldb	13,s
   0A1F C1 01         [ 2] 1533 	cmpb	#1	;cmpqi:
   0A21 25 06         [ 3] 1534 	blo	L131
                           1535 	; ldb	13,s; optimization 8
   0A23 C1 02         [ 2] 1536 	cmpb	#2	;cmpqi:
   0A25 27 26         [ 3] 1537 	beq	L133
   0A27 20 36         [ 3] 1538 	bra	L167
   0A29                    1539 L131:
   0A29 C6 01         [ 2] 1540 	ldb	#1
   0A2B E7 E2         [ 6] 1541 	stb	,-s
   0A2D C6 28         [ 2] 1542 	ldb	#40
   0A2F E7 E2         [ 6] 1543 	stb	,-s
   0A31 C6 EC         [ 2] 1544 	ldb	#-20
   0A33 BD 00 00      [ 8] 1545 	jsr	_print_unsigned_int
   0A36 32 62         [ 5] 1546 	leas	2,s
   0A38 7E 0C 59      [ 4] 1547 	jmp	L84
   0A3B                    1548 L132:
   0A3B C6 02         [ 2] 1549 	ldb	#2
   0A3D E7 E2         [ 6] 1550 	stb	,-s
   0A3F C6 28         [ 2] 1551 	ldb	#40
   0A41 E7 E2         [ 6] 1552 	stb	,-s
   0A43 C6 EC         [ 2] 1553 	ldb	#-20
   0A45 BD 00 00      [ 8] 1554 	jsr	_print_unsigned_int
   0A48 32 62         [ 5] 1555 	leas	2,s
   0A4A 7E 0C 59      [ 4] 1556 	jmp	L84
   0A4D                    1557 L133:
   0A4D C6 03         [ 2] 1558 	ldb	#3
   0A4F E7 E2         [ 6] 1559 	stb	,-s
   0A51 C6 28         [ 2] 1560 	ldb	#40
   0A53 E7 E2         [ 6] 1561 	stb	,-s
   0A55 C6 EC         [ 2] 1562 	ldb	#-20
   0A57 BD 00 00      [ 8] 1563 	jsr	_print_unsigned_int
   0A5A 32 62         [ 5] 1564 	leas	2,s
   0A5C 7E 0C 59      [ 4] 1565 	jmp	L84
   0A5F                    1566 L167:
   0A5F C6 64         [ 2] 1567 	ldb	#100
   0A61 E7 E2         [ 6] 1568 	stb	,-s
   0A63 C6 28         [ 2] 1569 	ldb	#40
   0A65 E7 E2         [ 6] 1570 	stb	,-s
   0A67 C6 EC         [ 2] 1571 	ldb	#-20
   0A69 BD 00 00      [ 8] 1572 	jsr	_print_unsigned_int
   0A6C 32 62         [ 5] 1573 	leas	2,s
   0A6E 7E 0C 59      [ 4] 1574 	jmp	L84
   0A71                    1575 L110:
   0A71 F6 00 01      [ 5] 1576 	ldb	_Menu+1
   0A74 C1 03         [ 2] 1577 	cmpb	#3	;cmpqi:
   0A76 10 26 01 DF   [ 6] 1578 	lbne	L84
   0A7A C6 92         [ 2] 1579 	ldb	#-110
   0A7C E7 E2         [ 6] 1580 	stb	,-s
   0A7E 8E 04 6A      [ 3] 1581 	ldx	#LC4
   0A81 C6 64         [ 2] 1582 	ldb	#100
   0A83 BD 00 00      [ 8] 1583 	jsr	_print_string
   0A86 32 61         [ 5] 1584 	leas	1,s
   0A88 F6 00 00      [ 5] 1585 	ldb	_player
   0A8B E7 6E         [ 5] 1586 	stb	14,s
                           1587 	; ldb	14,s	; optimization 5
   0A8D C1 01         [ 2] 1588 	cmpb	#1	;cmpqi:
   0A8F 27 1D         [ 3] 1589 	beq	L137
   0A91 E6 6E         [ 5] 1590 	ldb	14,s
   0A93 C1 01         [ 2] 1591 	cmpb	#1	;cmpqi:
   0A95 25 06         [ 3] 1592 	blo	L136
                           1593 	; ldb	14,s; optimization 8
   0A97 C1 02         [ 2] 1594 	cmpb	#2	;cmpqi:
   0A99 27 24         [ 3] 1595 	beq	L138
   0A9B 20 33         [ 3] 1596 	bra	L168
   0A9D                    1597 L136:
   0A9D C6 01         [ 2] 1598 	ldb	#1
   0A9F E7 E2         [ 6] 1599 	stb	,-s
   0AA1 C6 28         [ 2] 1600 	ldb	#40
   0AA3 E7 E2         [ 6] 1601 	stb	,-s
   0AA5 C6 64         [ 2] 1602 	ldb	#100
   0AA7 BD 00 00      [ 8] 1603 	jsr	_print_unsigned_int
   0AAA 32 62         [ 5] 1604 	leas	2,s
   0AAC 20 31         [ 3] 1605 	bra	L139
   0AAE                    1606 L137:
   0AAE C6 02         [ 2] 1607 	ldb	#2
   0AB0 E7 E2         [ 6] 1608 	stb	,-s
   0AB2 C6 28         [ 2] 1609 	ldb	#40
   0AB4 E7 E2         [ 6] 1610 	stb	,-s
   0AB6 C6 64         [ 2] 1611 	ldb	#100
   0AB8 BD 00 00      [ 8] 1612 	jsr	_print_unsigned_int
   0ABB 32 62         [ 5] 1613 	leas	2,s
   0ABD 20 20         [ 3] 1614 	bra	L139
   0ABF                    1615 L138:
   0ABF C6 03         [ 2] 1616 	ldb	#3
   0AC1 E7 E2         [ 6] 1617 	stb	,-s
   0AC3 C6 28         [ 2] 1618 	ldb	#40
   0AC5 E7 E2         [ 6] 1619 	stb	,-s
   0AC7 C6 64         [ 2] 1620 	ldb	#100
   0AC9 BD 00 00      [ 8] 1621 	jsr	_print_unsigned_int
   0ACC 32 62         [ 5] 1622 	leas	2,s
   0ACE 20 0F         [ 3] 1623 	bra	L139
   0AD0                    1624 L168:
   0AD0 C6 64         [ 2] 1625 	ldb	#100
   0AD2 E7 E2         [ 6] 1626 	stb	,-s
   0AD4 C6 28         [ 2] 1627 	ldb	#40
   0AD6 E7 E2         [ 6] 1628 	stb	,-s
   0AD8 C6 64         [ 2] 1629 	ldb	#100
   0ADA BD 00 00      [ 8] 1630 	jsr	_print_unsigned_int
   0ADD 32 62         [ 5] 1631 	leas	2,s
   0ADF                    1632 L139:
   0ADF C6 92         [ 2] 1633 	ldb	#-110
   0AE1 E7 E2         [ 6] 1634 	stb	,-s
   0AE3 8E 04 40      [ 3] 1635 	ldx	#LC1
   0AE6 C6 3C         [ 2] 1636 	ldb	#60
   0AE8 BD 00 00      [ 8] 1637 	jsr	_print_string
   0AEB 32 61         [ 5] 1638 	leas	1,s
   0AED F6 00 04      [ 5] 1639 	ldb	_player+4
   0AF0 E7 6F         [ 5] 1640 	stb	15,s
                           1641 	; ldb	15,s	; optimization 5
   0AF2 C1 01         [ 2] 1642 	cmpb	#1	;cmpqi:
   0AF4 27 1D         [ 3] 1643 	beq	L142
   0AF6 E6 6F         [ 5] 1644 	ldb	15,s
   0AF8 C1 01         [ 2] 1645 	cmpb	#1	;cmpqi:
   0AFA 25 06         [ 3] 1646 	blo	L141
                           1647 	; ldb	15,s; optimization 8
   0AFC C1 02         [ 2] 1648 	cmpb	#2	;cmpqi:
   0AFE 27 24         [ 3] 1649 	beq	L143
   0B00 20 33         [ 3] 1650 	bra	L169
   0B02                    1651 L141:
   0B02 C6 01         [ 2] 1652 	ldb	#1
   0B04 E7 E2         [ 6] 1653 	stb	,-s
   0B06 C6 28         [ 2] 1654 	ldb	#40
   0B08 E7 E2         [ 6] 1655 	stb	,-s
   0B0A C6 3C         [ 2] 1656 	ldb	#60
   0B0C BD 00 00      [ 8] 1657 	jsr	_print_unsigned_int
   0B0F 32 62         [ 5] 1658 	leas	2,s
   0B11 20 31         [ 3] 1659 	bra	L144
   0B13                    1660 L142:
   0B13 C6 02         [ 2] 1661 	ldb	#2
   0B15 E7 E2         [ 6] 1662 	stb	,-s
   0B17 C6 28         [ 2] 1663 	ldb	#40
   0B19 E7 E2         [ 6] 1664 	stb	,-s
   0B1B C6 3C         [ 2] 1665 	ldb	#60
   0B1D BD 00 00      [ 8] 1666 	jsr	_print_unsigned_int
   0B20 32 62         [ 5] 1667 	leas	2,s
   0B22 20 20         [ 3] 1668 	bra	L144
   0B24                    1669 L143:
   0B24 C6 03         [ 2] 1670 	ldb	#3
   0B26 E7 E2         [ 6] 1671 	stb	,-s
   0B28 C6 28         [ 2] 1672 	ldb	#40
   0B2A E7 E2         [ 6] 1673 	stb	,-s
   0B2C C6 3C         [ 2] 1674 	ldb	#60
   0B2E BD 00 00      [ 8] 1675 	jsr	_print_unsigned_int
   0B31 32 62         [ 5] 1676 	leas	2,s
   0B33 20 0F         [ 3] 1677 	bra	L144
   0B35                    1678 L169:
   0B35 C6 64         [ 2] 1679 	ldb	#100
   0B37 E7 E2         [ 6] 1680 	stb	,-s
   0B39 C6 28         [ 2] 1681 	ldb	#40
   0B3B E7 E2         [ 6] 1682 	stb	,-s
   0B3D C6 3C         [ 2] 1683 	ldb	#60
   0B3F BD 00 00      [ 8] 1684 	jsr	_print_unsigned_int
   0B42 32 62         [ 5] 1685 	leas	2,s
   0B44                    1686 L144:
   0B44 C6 92         [ 2] 1687 	ldb	#-110
   0B46 E7 E2         [ 6] 1688 	stb	,-s
   0B48 8E 04 4F      [ 3] 1689 	ldx	#LC2
   0B4B C6 14         [ 2] 1690 	ldb	#20
   0B4D BD 00 00      [ 8] 1691 	jsr	_print_string
   0B50 32 61         [ 5] 1692 	leas	1,s
   0B52 F6 00 01      [ 5] 1693 	ldb	_tower+1
   0B55 E7 E8 10      [ 5] 1694 	stb	16,s
                           1695 	; ldb	16,s	; optimization 5
   0B58 C1 05         [ 2] 1696 	cmpb	#5	;cmpqi:
   0B5A 10 22 00 85   [ 6] 1697 	lbhi	L145
   0B5E E6 E8 10      [ 5] 1698 	ldb	16,s
   0B61 4F            [ 2] 1699 	clra		;zero_extendqihi: R:b -> R:d
   0B62 ED E4         [ 5] 1700 	std	,s
                           1701 	; ldd	,s	; optimization 5
   0B64 58            [ 2] 1702 	aslb
   0B65 49            [ 2] 1703 	rola
   0B66 CE 0B 6F      [ 3] 1704 	ldu	#L152
   0B69 30 CB         [ 8] 1705 	leax	d,u
   0B6B AE 84         [ 5] 1706 	ldx	,x
   0B6D 6E 84         [ 3] 1707 	jmp	,x
   0B6F                    1708 L152:
   0B6F 0B 7B              1709 	.word L146
   0B71 0B 8D              1710 	.word L147
   0B73 0B 9F              1711 	.word L148
   0B75 0B B0              1712 	.word L149
   0B77 0B C1              1713 	.word L150
   0B79 0B D2              1714 	.word L151
   0B7B                    1715 L146:
   0B7B C6 01         [ 2] 1716 	ldb	#1
   0B7D E7 E2         [ 6] 1717 	stb	,-s
   0B7F C6 28         [ 2] 1718 	ldb	#40
   0B81 E7 E2         [ 6] 1719 	stb	,-s
   0B83 C6 14         [ 2] 1720 	ldb	#20
   0B85 BD 00 00      [ 8] 1721 	jsr	_print_unsigned_int
   0B88 32 62         [ 5] 1722 	leas	2,s
   0B8A 7E 0B F2      [ 4] 1723 	jmp	L153
   0B8D                    1724 L147:
   0B8D C6 02         [ 2] 1725 	ldb	#2
   0B8F E7 E2         [ 6] 1726 	stb	,-s
   0B91 C6 28         [ 2] 1727 	ldb	#40
   0B93 E7 E2         [ 6] 1728 	stb	,-s
   0B95 C6 14         [ 2] 1729 	ldb	#20
   0B97 BD 00 00      [ 8] 1730 	jsr	_print_unsigned_int
   0B9A 32 62         [ 5] 1731 	leas	2,s
   0B9C 7E 0B F2      [ 4] 1732 	jmp	L153
   0B9F                    1733 L148:
   0B9F C6 03         [ 2] 1734 	ldb	#3
   0BA1 E7 E2         [ 6] 1735 	stb	,-s
   0BA3 C6 28         [ 2] 1736 	ldb	#40
   0BA5 E7 E2         [ 6] 1737 	stb	,-s
   0BA7 C6 14         [ 2] 1738 	ldb	#20
   0BA9 BD 00 00      [ 8] 1739 	jsr	_print_unsigned_int
   0BAC 32 62         [ 5] 1740 	leas	2,s
   0BAE 20 42         [ 3] 1741 	bra	L153
   0BB0                    1742 L149:
   0BB0 C6 04         [ 2] 1743 	ldb	#4
   0BB2 E7 E2         [ 6] 1744 	stb	,-s
   0BB4 C6 28         [ 2] 1745 	ldb	#40
   0BB6 E7 E2         [ 6] 1746 	stb	,-s
   0BB8 C6 14         [ 2] 1747 	ldb	#20
   0BBA BD 00 00      [ 8] 1748 	jsr	_print_unsigned_int
   0BBD 32 62         [ 5] 1749 	leas	2,s
   0BBF 20 31         [ 3] 1750 	bra	L153
   0BC1                    1751 L150:
   0BC1 C6 05         [ 2] 1752 	ldb	#5
   0BC3 E7 E2         [ 6] 1753 	stb	,-s
   0BC5 C6 28         [ 2] 1754 	ldb	#40
   0BC7 E7 E2         [ 6] 1755 	stb	,-s
   0BC9 C6 14         [ 2] 1756 	ldb	#20
   0BCB BD 00 00      [ 8] 1757 	jsr	_print_unsigned_int
   0BCE 32 62         [ 5] 1758 	leas	2,s
   0BD0 20 20         [ 3] 1759 	bra	L153
   0BD2                    1760 L151:
   0BD2 C6 06         [ 2] 1761 	ldb	#6
   0BD4 E7 E2         [ 6] 1762 	stb	,-s
   0BD6 C6 28         [ 2] 1763 	ldb	#40
   0BD8 E7 E2         [ 6] 1764 	stb	,-s
   0BDA C6 14         [ 2] 1765 	ldb	#20
   0BDC BD 00 00      [ 8] 1766 	jsr	_print_unsigned_int
   0BDF 32 62         [ 5] 1767 	leas	2,s
   0BE1 20 0F         [ 3] 1768 	bra	L153
   0BE3                    1769 L145:
   0BE3 C6 64         [ 2] 1770 	ldb	#100
   0BE5 E7 E2         [ 6] 1771 	stb	,-s
   0BE7 C6 28         [ 2] 1772 	ldb	#40
   0BE9 E7 E2         [ 6] 1773 	stb	,-s
   0BEB C6 14         [ 2] 1774 	ldb	#20
   0BED BD 00 00      [ 8] 1775 	jsr	_print_unsigned_int
   0BF0 32 62         [ 5] 1776 	leas	2,s
   0BF2                    1777 L153:
   0BF2 C6 92         [ 2] 1778 	ldb	#-110
   0BF4 E7 E2         [ 6] 1779 	stb	,-s
   0BF6 8E 04 94      [ 3] 1780 	ldx	#LC7
   0BF9 C6 EC         [ 2] 1781 	ldb	#-20
   0BFB BD 00 00      [ 8] 1782 	jsr	_print_string
   0BFE 32 61         [ 5] 1783 	leas	1,s
   0C00 F6 00 02      [ 5] 1784 	ldb	_tower+2
   0C03 E7 E8 11      [ 5] 1785 	stb	17,s
                           1786 	; ldb	17,s	; optimization 5
   0C06 C1 01         [ 2] 1787 	cmpb	#1	;cmpqi:
   0C08 27 1E         [ 3] 1788 	beq	L156
   0C0A E6 E8 11      [ 5] 1789 	ldb	17,s
   0C0D C1 01         [ 2] 1790 	cmpb	#1	;cmpqi:
   0C0F 25 06         [ 3] 1791 	blo	L155
                           1792 	; ldb	17,s; optimization 8
   0C11 C1 02         [ 2] 1793 	cmpb	#2	;cmpqi:
   0C13 27 24         [ 3] 1794 	beq	L157
   0C15 20 33         [ 3] 1795 	bra	L170
   0C17                    1796 L155:
   0C17 C6 01         [ 2] 1797 	ldb	#1
   0C19 E7 E2         [ 6] 1798 	stb	,-s
   0C1B C6 28         [ 2] 1799 	ldb	#40
   0C1D E7 E2         [ 6] 1800 	stb	,-s
   0C1F C6 EC         [ 2] 1801 	ldb	#-20
   0C21 BD 00 00      [ 8] 1802 	jsr	_print_unsigned_int
   0C24 32 62         [ 5] 1803 	leas	2,s
   0C26 20 31         [ 3] 1804 	bra	L84
   0C28                    1805 L156:
   0C28 C6 02         [ 2] 1806 	ldb	#2
   0C2A E7 E2         [ 6] 1807 	stb	,-s
   0C2C C6 28         [ 2] 1808 	ldb	#40
   0C2E E7 E2         [ 6] 1809 	stb	,-s
   0C30 C6 EC         [ 2] 1810 	ldb	#-20
   0C32 BD 00 00      [ 8] 1811 	jsr	_print_unsigned_int
   0C35 32 62         [ 5] 1812 	leas	2,s
   0C37 20 20         [ 3] 1813 	bra	L84
   0C39                    1814 L157:
   0C39 C6 03         [ 2] 1815 	ldb	#3
   0C3B E7 E2         [ 6] 1816 	stb	,-s
   0C3D C6 28         [ 2] 1817 	ldb	#40
   0C3F E7 E2         [ 6] 1818 	stb	,-s
   0C41 C6 EC         [ 2] 1819 	ldb	#-20
   0C43 BD 00 00      [ 8] 1820 	jsr	_print_unsigned_int
   0C46 32 62         [ 5] 1821 	leas	2,s
   0C48 20 0F         [ 3] 1822 	bra	L84
   0C4A                    1823 L170:
   0C4A C6 64         [ 2] 1824 	ldb	#100
   0C4C E7 E2         [ 6] 1825 	stb	,-s
   0C4E C6 28         [ 2] 1826 	ldb	#40
   0C50 E7 E2         [ 6] 1827 	stb	,-s
   0C52 C6 EC         [ 2] 1828 	ldb	#-20
   0C54 BD 00 00      [ 8] 1829 	jsr	_print_unsigned_int
   0C57 32 62         [ 5] 1830 	leas	2,s
   0C59                    1831 L84:
   0C59 C6 92         [ 2] 1832 	ldb	#-110
   0C5B E7 E2         [ 6] 1833 	stb	,-s
   0C5D 8E 04 A2      [ 3] 1834 	ldx	#LC8
   0C60 C6 B0         [ 2] 1835 	ldb	#-80
   0C62 BD 00 00      [ 8] 1836 	jsr	_print_string
   0C65 32 61         [ 5] 1837 	leas	1,s
   0C67 BE 00 02      [ 6] 1838 	ldx	_player+2
   0C6A C6 28         [ 2] 1839 	ldb	#40
   0C6C E7 E2         [ 6] 1840 	stb	,-s
   0C6E C6 B0         [ 2] 1841 	ldb	#-80
   0C70 BD 00 00      [ 8] 1842 	jsr	_print_long_unsigned_int
   0C73 32 61         [ 5] 1843 	leas	1,s
   0C75 32 E8 12      [ 5] 1844 	leas	18,s
   0C78 35 C0         [ 7] 1845 	puls	u,pc
ASxxxx Assembler V05.00  (Motorola 6809), page 1.
Hexidecimal [16-Bits]

Symbol Table

    .__.$$$.       =   2710 L   |     .__.ABS.       =   0000 G
    .__.CPU.       =   0000 L   |     .__.H$L.       =   0001 L
  2 L100               07DA R   |   2 L101               07EB R
  2 L102               07FC R   |   2 L103               0799 R
  2 L104               081C R   |   2 L106               083F R
  2 L107               0851 R   |   2 L108               0863 R
  2 L11                0169 R   |   2 L110               0A71 R
  2 L112               08B3 R   |   2 L113               08C4 R
  2 L114               08D5 R   |   2 L115               08F5 R
  2 L117               0918 R   |   2 L118               0929 R
  2 L119               093A R   |   2 L12                0171 R
  2 L120               095A R   |   2 L121               09F7 R
  2 L122               098F R   |   2 L123               09A1 R
  2 L124               09B3 R   |   2 L125               09C4 R
  2 L126               09D5 R   |   2 L127               09E6 R
  2 L128               0983 R   |   2 L129               0A06 R
  2 L131               0A29 R   |   2 L132               0A3B R
  2 L133               0A4D R   |   2 L136               0A9D R
  2 L137               0AAE R   |   2 L138               0ABF R
  2 L139               0ADF R   |   2 L141               0B02 R
  2 L142               0B13 R   |   2 L143               0B24 R
  2 L144               0B44 R   |   2 L145               0BE3 R
  2 L146               0B7B R   |   2 L147               0B8D R
  2 L148               0B9F R   |   2 L149               0BB0 R
  2 L15                01B3 R   |   2 L150               0BC1 R
  2 L151               0BD2 R   |   2 L152               0B6F R
  2 L153               0BF2 R   |   2 L155               0C17 R
  2 L156               0C28 R   |   2 L157               0C39 R
  2 L159               0512 R   |   2 L160               0577 R
  2 L161               068B R   |   2 L162               06FC R
  2 L163               0761 R   |   2 L164               0875 R
  2 L165               08E6 R   |   2 L166               094B R
  2 L167               0A5F R   |   2 L168               0AD0 R
  2 L169               0B35 R   |   2 L17                019D R
  2 L170               0C4A R   |   2 L18                01A5 R
  2 L21                02A3 R   |   2 L23                01EA R
  2 L24                020F R   |   2 L25                0234 R
  2 L26                0259 R   |   2 L27                027E R
  2 L28                01E0 R   |   2 L34                02C6 R
  2 L35                0328 R   |   2 L39                039E R
  2 L4                 011F R   |   2 L40                03DB R
  2 L42                03BF R   |   2 L43                03C7 R
  2 L44                03CD R   |   2 L45                03D4 R
  2 L46                03E9 R   |   2 L47                0409 R
  2 L48                0410 R   |   2 L49                0417 R
  2 L50                041E R   |   2 L51                0421 R
  2 L52                0179 R   |   2 L53                01AD R
  2 L54                038A R   |   2 L56                0426 R
  2 L59                069D R   |   2 L6                 013A R
  2 L61                04DF R   |   2 L62                04F0 R
  2 L63                0501 R   |   2 L64                0521 R
  2 L66                0544 R   |   2 L67                0555 R
  2 L68                0566 R   |   2 L69                0586 R
  2 L7                 0390 R   |   2 L70                0623 R
  2 L71                05BB R   |   2 L72                05CD R
  2 L73                05DF R   |   2 L74                05F0 R
  2 L75                0601 R   |   2 L76                0612 R
  2 L77                05AF R   |   2 L78                0632 R
  2 L8                 017F R   |   2 L80                0655 R
  2 L81                0667 R   |   2 L82                0679 R
  2 L84                0C59 R   |   2 L85                0887 R
  2 L87                06C9 R   |   2 L88                06DA R
  2 L89                06EB R   |   2 L90                070B R
  2 L92                072E R   |   2 L93                073F R
  2 L94                0750 R   |   2 L95                0770 R
  2 L96                080D R   |   2 L97                07A5 R
  2 L98                07B7 R   |   2 L99                07C9 R
  2 LC0                0432 R   |   2 LC1                0440 R
  2 LC2                044F R   |   2 LC3                045C R
  2 LC4                046A R   |   2 LC5                0478 R
  2 LC6                0487 R   |   2 LC7                0494 R
  2 LC8                04A2 R   |   3 _Menu              0000 GR
    _Sync              **** GX  |     _Vec_Buttons       **** GX
    _Vec_Joy_1_Y       **** GX  |     ___Joy_Digital     **** GX
    ___Read_Btns       **** GX  |     ___Reset0Ref       **** GX
  3 _limit.3290        0002 R   |   2 _menu_draw         04AA GR
  2 _menu_handle       010B GR  |   2 _menu_init         0102 GR
  2 _menu_open         0426 GR  |     _player            **** GX
    _print_long_un     **** GX  |     _print_string      **** GX
    _print_unsigne     **** GX  |     _set_tower         **** GX
    _tower             **** GX  |   2 _towercost         0000 GR
  2 _vectors_tower     0024 GR  |   2 _vectors_tower     0042 GR
  2 _vectors_tower     0069 GR  |   2 _vectors_tower     0096 GR
  2 _vectors_tower     00CC GR  |   2 _vectors_tower     00E7 GR

ASxxxx Assembler V05.00  (Motorola 6809), page 2.
Hexidecimal [16-Bits]

Area Table

[_CSEG]
   0 _CODE            size    0   flags C080
   2 .text            size  C7A   flags  100
   3 .data            size    3   flags  100
[_DSEG]
   1 _DATA            size    0   flags C0C0

