                              1 
                              2 ;;; gcc for m6809 : Feb 15 2016 21:40:10
                              3 ;;; 4.3.6 (gcc6809)
                              4 ;;; ABI version 1
                              5 ;;; -mint8
                              6 	.module	player.c
                              7 	.globl _vectors_player
                              8 	.area .text
   0000                       9 _vectors_player:
   0000 FF                   10 	.byte	-1
   0001 04                   11 	.byte	4
   0002 00                   12 	.byte	0
   0003 FF                   13 	.byte	-1
   0004 00                   14 	.byte	0
   0005 0C                   15 	.byte	12
   0006 FF                   16 	.byte	-1
   0007 04                   17 	.byte	4
   0008 00                   18 	.byte	0
   0009 FF                   19 	.byte	-1
   000A F8                   20 	.byte	-8
   000B 28                   21 	.byte	40
   000C FF                   22 	.byte	-1
   000D F8                   23 	.byte	-8
   000E D8                   24 	.byte	-40
   000F FF                   25 	.byte	-1
   0010 04                   26 	.byte	4
   0011 00                   27 	.byte	0
   0012 FF                   28 	.byte	-1
   0013 00                   29 	.byte	0
   0014 F4                   30 	.byte	-12
   0015 FF                   31 	.byte	-1
   0016 04                   32 	.byte	4
   0017 00                   33 	.byte	0
   0018 01                   34 	.byte	1
   0019 00                   35 	.byte	0
   001A 00                   36 	.byte	0
                             37 	.globl _player
                             38 	.area .data
   0000                      39 _player:
   0000 00 00                40 	.word	0	;skip space 5
   0002 00 00                41 	.word	0	;skip space 3
   0004 00                   42 	.byte	0	;skip space
                             43 	.area .text
                             44 	.globl _draw_player
   001B                      45 _draw_player:
   001B 32 E8 E4      [ 5]   46 	leas	-28,s
   001E BD 00 00      [ 8]   47 	jsr	___Reset0Ref
   0021 C6 7F         [ 2]   48 	ldb	#127
   0023 D7 00         [ 4]   49 	stb	*_dp_VIA_t1_cnt_lo
   0025 6F E2         [ 8]   50 	clr	,-s
   0027 5F            [ 2]   51 	clrb
   0028 BD 00 00      [ 8]   52 	jsr	__Moveto_d
   002B 32 61         [ 5]   53 	leas	1,s
   002D C6 22         [ 2]   54 	ldb	#34
   002F D7 00         [ 4]   55 	stb	*_dp_VIA_t1_cnt_lo
   0031 F6 00 01      [ 5]   56 	ldb	_player+1
   0034 E7 E8 1B      [ 5]   57 	stb	27,s
   0037 30 E4         [ 4]   58 	leax	,s
   0039 34 10         [ 6]   59 	pshs	x
   003B 8E 00 00      [ 3]   60 	ldx	#_vectors_player
   003E E6 E8 1D      [ 5]   61 	ldb	29,s
   0041 BD 00 00      [ 8]   62 	jsr	__Rot_VL_Mode
   0044 32 62         [ 5]   63 	leas	2,s
   0046 30 E4         [ 4]   64 	leax	,s
   0048 BD 00 00      [ 8]   65 	jsr	___Draw_VLp
   004B 32 E8 1C      [ 5]   66 	leas	28,s
   004E 39            [ 5]   67 	rts
                             68 	.globl _init_player
   004F                      69 _init_player:
   004F 7F 00 00      [ 7]   70 	clr	_player
   0052 7F 00 01      [ 7]   71 	clr	_player+1
   0055 8E 00 00      [ 3]   72 	ldx	#0
   0058 BF 00 02      [ 6]   73 	stx	_player+2
   005B 7F 00 04      [ 7]   74 	clr	_player+4
   005E 39            [ 5]   75 	rts
                             76 	.globl _rotate_player
   005F                      77 _rotate_player:
   005F 32 7D         [ 5]   78 	leas	-3,s
   0061 C6 01         [ 2]   79 	ldb	#1
   0063 E7 62         [ 5]   80 	stb	2,s
   0065 BD 00 00      [ 8]   81 	jsr	___Joy_Digital
   0068 F6 00 00      [ 5]   82 	ldb	_Vec_Joy_1_X
   006B 6F E4         [ 6]   83 	clr	,s
   006D 5D            [ 2]   84 	tstb
   006E 2C 04         [ 3]   85 	bge	L6
   0070 C6 01         [ 2]   86 	ldb	#1
   0072 E7 E4         [ 4]   87 	stb	,s
   0074                      88 L6:
   0074 E6 E4         [ 4]   89 	ldb	,s
                             90 	; tstb	; optimization 6
   0076 27 11         [ 3]   91 	beq	L7
   0078 F6 00 01      [ 5]   92 	ldb	_player+1
   007B EB 62         [ 5]   93 	addb	2,s
   007D F7 00 01      [ 5]   94 	stb	_player+1
                             95 	; ldb	_player+1	; optimization 5
   0080 C1 3E         [ 2]   96 	cmpb	#62	;cmpqi:
   0082 23 26         [ 3]   97 	bls	L11
   0084 7F 00 01      [ 7]   98 	clr	_player+1
   0087 20 21         [ 3]   99 	bra	L11
   0089                     100 L7:
   0089 F6 00 00      [ 5]  101 	ldb	_Vec_Joy_1_X
   008C 6F 61         [ 7]  102 	clr	1,s
   008E 5D            [ 2]  103 	tstb
   008F 2F 04         [ 3]  104 	ble	L10
   0091 C6 01         [ 2]  105 	ldb	#1
   0093 E7 61         [ 5]  106 	stb	1,s
   0095                     107 L10:
   0095 E6 61         [ 5]  108 	ldb	1,s
                            109 	; tstb	; optimization 6
   0097 27 11         [ 3]  110 	beq	L11
   0099 F6 00 01      [ 5]  111 	ldb	_player+1
   009C E0 62         [ 5]  112 	subb	2,s
   009E F7 00 01      [ 5]  113 	stb	_player+1
                            114 	; ldb	_player+1	; optimization 5
   00A1 C1 40         [ 2]  115 	cmpb	#64	;cmpqi:
   00A3 23 05         [ 3]  116 	bls	L11
   00A5 C6 3F         [ 2]  117 	ldb	#63
   00A7 F7 00 01      [ 5]  118 	stb	_player+1
   00AA                     119 L11:
   00AA 32 63         [ 5]  120 	leas	3,s
   00AC 39            [ 5]  121 	rts
                            122 	.area .data
   0005                     123 _timerFireRate.3285:
   0005 14                  124 	.byte	20
                            125 	.area .text
                            126 	.globl _shot_player
   00AD                     127 _shot_player:
   00AD 32 7D         [ 5]  128 	leas	-3,s
   00AF BD 00 00      [ 8]  129 	jsr	___Read_Btns
   00B2 6F 61         [ 7]  130 	clr	1,s
   00B4 6F 62         [ 7]  131 	clr	2,s
   00B6 F6 00 05      [ 5]  132 	ldb	_timerFireRate.3285
                            133 	; tstb	; optimization 6
   00B9 10 2E 00 52   [ 6]  134 	lbgt	L13
   00BD F6 00 00      [ 5]  135 	ldb	_Vec_Buttons
   00C0 C4 08         [ 2]  136 	andb	#8
   00C2 5D            [ 2]  137 	tstb
   00C3 10 27 00 76   [ 6]  138 	lbeq	L22
   00C7 F6 00 00      [ 5]  139 	ldb	_player
   00CA E7 E4         [ 4]  140 	stb	,s
                            141 	; ldb	,s	; optimization 5
   00CC C1 01         [ 2]  142 	cmpb	#1	;cmpqi:
   00CE 27 1A         [ 3]  143 	beq	L17
   00D0 E6 E4         [ 4]  144 	ldb	,s
   00D2 C1 01         [ 2]  145 	cmpb	#1	;cmpqi:
   00D4 25 24         [ 3]  146 	blo	L16
                            147 	; ldb	,s; optimization 8
   00D6 C1 02         [ 2]  148 	cmpb	#2	;cmpqi:
   00D8 26 2E         [ 3]  149 	bne	L15
   00DA                     150 L18:
   00DA F6 00 01      [ 5]  151 	ldb	_player+1
   00DD CB FC         [ 2]  152 	addb	#-4
   00DF 34 04         [ 6]  153 	pshs	b
   00E1 C6 01         [ 2]  154 	ldb	#1
   00E3 AE 62         [ 6]  155 	ldx	2,s
   00E5 BD 00 00      [ 8]  156 	jsr	_fire_bullet
   00E8 32 61         [ 5]  157 	leas	1,s
   00EA                     158 L17:
   00EA F6 00 01      [ 5]  159 	ldb	_player+1
   00ED CB 04         [ 2]  160 	addb	#4
   00EF 34 04         [ 6]  161 	pshs	b
   00F1 C6 01         [ 2]  162 	ldb	#1
   00F3 AE 62         [ 6]  163 	ldx	2,s
   00F5 BD 00 00      [ 8]  164 	jsr	_fire_bullet
   00F8 32 61         [ 5]  165 	leas	1,s
   00FA                     166 L16:
   00FA F6 00 01      [ 5]  167 	ldb	_player+1
   00FD 34 04         [ 6]  168 	pshs	b
   00FF C6 01         [ 2]  169 	ldb	#1
   0101 AE 62         [ 6]  170 	ldx	2,s
   0103 BD 00 00      [ 8]  171 	jsr	_fire_bullet
   0106 32 61         [ 5]  172 	leas	1,s
   0108                     173 L15:
   0108 C6 14         [ 2]  174 	ldb	#20
   010A F7 00 05      [ 5]  175 	stb	_timerFireRate.3285
   010D 20 2E         [ 3]  176 	bra	L22
   010F                     177 L13:
   010F F6 00 04      [ 5]  178 	ldb	_player+4
                            179 	; tstb	; optimization 6
   0112 26 09         [ 3]  180 	bne	L20
   0114 F6 00 05      [ 5]  181 	ldb	_timerFireRate.3285
   0117 5A            [ 2]  182 	decb
   0118 F7 00 05      [ 5]  183 	stb	_timerFireRate.3285
   011B 20 20         [ 3]  184 	bra	L22
   011D                     185 L20:
   011D F6 00 04      [ 5]  186 	ldb	_player+4
   0120 C1 01         [ 2]  187 	cmpb	#1	;cmpqi:
   0122 26 0A         [ 3]  188 	bne	L21
   0124 F6 00 05      [ 5]  189 	ldb	_timerFireRate.3285
   0127 CB FE         [ 2]  190 	addb	#-2
   0129 F7 00 05      [ 5]  191 	stb	_timerFireRate.3285
   012C 20 0F         [ 3]  192 	bra	L22
   012E                     193 L21:
   012E F6 00 04      [ 5]  194 	ldb	_player+4
   0131 C1 02         [ 2]  195 	cmpb	#2	;cmpqi:
   0133 26 08         [ 3]  196 	bne	L22
   0135 F6 00 05      [ 5]  197 	ldb	_timerFireRate.3285
   0138 CB FB         [ 2]  198 	addb	#-5
   013A F7 00 05      [ 5]  199 	stb	_timerFireRate.3285
   013D                     200 L22:
   013D 32 63         [ 5]  201 	leas	3,s
   013F 39            [ 5]  202 	rts
                            203 	.globl _handle_player
   0140                     204 _handle_player:
   0140 BD 00 5F      [ 8]  205 	jsr	_rotate_player
   0143 BD 00 1B      [ 8]  206 	jsr	_draw_player
   0146 BD 00 AD      [ 8]  207 	jsr	_shot_player
   0149 39            [ 5]  208 	rts
                            209 	.area .bss
                            210 	.globl	_bullets
   0000                     211 _bullets:	.blkb	60
ASxxxx Assembler V05.00  (Motorola 6809), page 1.
Hexidecimal [16-Bits]

Symbol Table

    .__.$$$.       =   2710 L   |     .__.ABS.       =   0000 G
    .__.CPU.       =   0000 L   |     .__.H$L.       =   0001 L
  2 L10                0095 R   |   2 L11                00AA R
  2 L13                010F R   |   2 L15                0108 R
  2 L16                00FA R   |   2 L17                00EA R
  2 L18                00DA R   |   2 L20                011D R
  2 L21                012E R   |   2 L22                013D R
  2 L6                 0074 R   |   2 L7                 0089 R
    _Vec_Buttons       **** GX  |     _Vec_Joy_1_X       **** GX
    __Moveto_d         **** GX  |     __Rot_VL_Mode      **** GX
    ___Draw_VLp        **** GX  |     ___Joy_Digital     **** GX
    ___Read_Btns       **** GX  |     ___Reset0Ref       **** GX
  4 _bullets           0000 GR  |     _dp_VIA_t1_cnt     **** GX
  2 _draw_player       001B GR  |     _fire_bullet       **** GX
  2 _handle_player     0140 GR  |   2 _init_player       004F GR
  3 _player            0000 GR  |   2 _rotate_player     005F GR
  2 _shot_player       00AD GR  |   3 _timerFireRate     0005 R
  2 _vectors_playe     0000 GR

ASxxxx Assembler V05.00  (Motorola 6809), page 2.
Hexidecimal [16-Bits]

Area Table

[_CSEG]
   0 _CODE            size    0   flags C080
   2 .text            size  14A   flags  100
   3 .data            size    6   flags  100
   4 .bss             size   3C   flags    0
[_DSEG]
   1 _DATA            size    0   flags C0C0

