                              1 
                              2 ;;; gcc for m6809 : Feb 15 2016 21:40:10
                              3 ;;; 4.3.6 (gcc6809)
                              4 ;;; ABI version 1
                              5 ;;; -mint8
                              6 	.module	tower.c
                              7 	.globl _towercost
                              8 	.area .text
   0000                       9 _towercost:
   0000 00 00                10 	.word	0
   0002 00 00                11 	.word	0
   0004 00 00                12 	.word	0
   0006 00 14                13 	.word	20
   0008 00 14                14 	.word	20
   000A 00 1E                15 	.word	30
   000C 00 32                16 	.word	50
   000E 00 32                17 	.word	50
   0010 00 3C                18 	.word	60
   0012 00 64                19 	.word	100
   0014 00 96                20 	.word	150
   0016 00 C8                21 	.word	200
   0018 00 C8                22 	.word	200
   001A 00 FA                23 	.word	250
   001C 01 2C                24 	.word	300
   001E 01 F4                25 	.word	500
   0020 03 20                26 	.word	800
   0022 03 84                27 	.word	900
                             28 	.globl _vectors_tower_lvl_1
   0024                      29 _vectors_tower_lvl_1:
   0024 00                   30 	.byte	0
   0025 10                   31 	.byte	16
   0026 00                   32 	.byte	0
   0027 FF                   33 	.byte	-1
   0028 00                   34 	.byte	0
   0029 10                   35 	.byte	16
   002A FF                   36 	.byte	-1
   002B E0                   37 	.byte	-32
   002C 00                   38 	.byte	0
   002D 00                   39 	.byte	0
   002E 20                   40 	.byte	32
   002F 00                   41 	.byte	0
   0030 FF                   42 	.byte	-1
   0031 F0                   43 	.byte	-16
   0032 10                   44 	.byte	16
   0033 FF                   45 	.byte	-1
   0034 F0                   46 	.byte	-16
   0035 F0                   47 	.byte	-16
   0036 FF                   48 	.byte	-1
   0037 00                   49 	.byte	0
   0038 E0                   50 	.byte	-32
   0039 FF                   51 	.byte	-1
   003A 20                   52 	.byte	32
   003B 00                   53 	.byte	0
   003C FF                   54 	.byte	-1
   003D 00                   55 	.byte	0
   003E 10                   56 	.byte	16
   003F 01                   57 	.byte	1
   0040 00                   58 	.byte	0
   0041 00                   59 	.byte	0
                             60 	.globl _vectors_tower_lvl_2
   0042                      61 _vectors_tower_lvl_2:
   0042 00                   62 	.byte	0
   0043 10                   63 	.byte	16
   0044 00                   64 	.byte	0
   0045 FF                   65 	.byte	-1
   0046 00                   66 	.byte	0
   0047 10                   67 	.byte	16
   0048 FF                   68 	.byte	-1
   0049 E0                   69 	.byte	-32
   004A 00                   70 	.byte	0
   004B 00                   71 	.byte	0
   004C 20                   72 	.byte	32
   004D 00                   73 	.byte	0
   004E FF                   74 	.byte	-1
   004F F0                   75 	.byte	-16
   0050 10                   76 	.byte	16
   0051 FF                   77 	.byte	-1
   0052 F0                   78 	.byte	-16
   0053 F0                   79 	.byte	-16
   0054 FF                   80 	.byte	-1
   0055 00                   81 	.byte	0
   0056 E0                   82 	.byte	-32
   0057 FF                   83 	.byte	-1
   0058 20                   84 	.byte	32
   0059 00                   85 	.byte	0
   005A 00                   86 	.byte	0
   005B E0                   87 	.byte	-32
   005C 00                   88 	.byte	0
   005D FF                   89 	.byte	-1
   005E 10                   90 	.byte	16
   005F F0                   91 	.byte	-16
   0060 FF                   92 	.byte	-1
   0061 10                   93 	.byte	16
   0062 10                   94 	.byte	16
   0063 FF                   95 	.byte	-1
   0064 00                   96 	.byte	0
   0065 10                   97 	.byte	16
   0066 01                   98 	.byte	1
   0067 00                   99 	.byte	0
   0068 00                  100 	.byte	0
                            101 	.globl _vectors_tower_lvl_3
   0069                     102 _vectors_tower_lvl_3:
   0069 00                  103 	.byte	0
   006A 20                  104 	.byte	32
   006B 00                  105 	.byte	0
   006C FF                  106 	.byte	-1
   006D F0                  107 	.byte	-16
   006E 10                  108 	.byte	16
   006F FF                  109 	.byte	-1
   0070 00                  110 	.byte	0
   0071 E0                  111 	.byte	-32
   0072 00                  112 	.byte	0
   0073 00                  113 	.byte	0
   0074 20                  114 	.byte	32
   0075 FF                  115 	.byte	-1
   0076 E0                  116 	.byte	-32
   0077 00                  117 	.byte	0
   0078 00                  118 	.byte	0
   0079 20                  119 	.byte	32
   007A 00                  120 	.byte	0
   007B FF                  121 	.byte	-1
   007C F0                  122 	.byte	-16
   007D 10                  123 	.byte	16
   007E FF                  124 	.byte	-1
   007F F0                  125 	.byte	-16
   0080 F0                  126 	.byte	-16
   0081 FF                  127 	.byte	-1
   0082 00                  128 	.byte	0
   0083 E0                  129 	.byte	-32
   0084 FF                  130 	.byte	-1
   0085 20                  131 	.byte	32
   0086 00                  132 	.byte	0
   0087 00                  133 	.byte	0
   0088 E0                  134 	.byte	-32
   0089 00                  135 	.byte	0
   008A FF                  136 	.byte	-1
   008B 10                  137 	.byte	16
   008C F0                  138 	.byte	-16
   008D FF                  139 	.byte	-1
   008E 10                  140 	.byte	16
   008F 10                  141 	.byte	16
   0090 FF                  142 	.byte	-1
   0091 10                  143 	.byte	16
   0092 10                  144 	.byte	16
   0093 01                  145 	.byte	1
   0094 00                  146 	.byte	0
   0095 00                  147 	.byte	0
                            148 	.globl _vectors_tower_lvl_4
   0096                     149 _vectors_tower_lvl_4:
   0096 00                  150 	.byte	0
   0097 20                  151 	.byte	32
   0098 00                  152 	.byte	0
   0099 FF                  153 	.byte	-1
   009A F0                  154 	.byte	-16
   009B 10                  155 	.byte	16
   009C FF                  156 	.byte	-1
   009D 00                  157 	.byte	0
   009E E0                  158 	.byte	-32
   009F 00                  159 	.byte	0
   00A0 00                  160 	.byte	0
   00A1 20                  161 	.byte	32
   00A2 FF                  162 	.byte	-1
   00A3 E0                  163 	.byte	-32
   00A4 00                  164 	.byte	0
   00A5 00                  165 	.byte	0
   00A6 20                  166 	.byte	32
   00A7 00                  167 	.byte	0
   00A8 FF                  168 	.byte	-1
   00A9 F0                  169 	.byte	-16
   00AA 10                  170 	.byte	16
   00AB FF                  171 	.byte	-1
   00AC F0                  172 	.byte	-16
   00AD F0                  173 	.byte	-16
   00AE FF                  174 	.byte	-1
   00AF 00                  175 	.byte	0
   00B0 E0                  176 	.byte	-32
   00B1 00                  177 	.byte	0
   00B2 00                  178 	.byte	0
   00B3 20                  179 	.byte	32
   00B4 FF                  180 	.byte	-1
   00B5 F0                  181 	.byte	-16
   00B6 F0                  182 	.byte	-16
   00B7 FF                  183 	.byte	-1
   00B8 10                  184 	.byte	16
   00B9 F0                  185 	.byte	-16
   00BA FF                  186 	.byte	-1
   00BB 20                  187 	.byte	32
   00BC 00                  188 	.byte	0
   00BD 00                  189 	.byte	0
   00BE E0                  190 	.byte	-32
   00BF 00                  191 	.byte	0
   00C0 FF                  192 	.byte	-1
   00C1 10                  193 	.byte	16
   00C2 F0                  194 	.byte	-16
   00C3 FF                  195 	.byte	-1
   00C4 10                  196 	.byte	16
   00C5 10                  197 	.byte	16
   00C6 FF                  198 	.byte	-1
   00C7 10                  199 	.byte	16
   00C8 10                  200 	.byte	16
   00C9 01                  201 	.byte	1
   00CA 00                  202 	.byte	0
   00CB 00                  203 	.byte	0
                            204 	.globl _vectors_tower_lvl_5
   00CC                     205 _vectors_tower_lvl_5:
   00CC 00                  206 	.byte	0
   00CD 28                  207 	.byte	40
   00CE 00                  208 	.byte	0
   00CF FF                  209 	.byte	-1
   00D0 00                  210 	.byte	0
   00D1 18                  211 	.byte	24
   00D2 FF                  212 	.byte	-1
   00D3 D8                  213 	.byte	-40
   00D4 18                  214 	.byte	24
   00D5 FF                  215 	.byte	-1
   00D6 D8                  216 	.byte	-40
   00D7 E8                  217 	.byte	-24
   00D8 FF                  218 	.byte	-1
   00D9 00                  219 	.byte	0
   00DA D0                  220 	.byte	-48
   00DB FF                  221 	.byte	-1
   00DC 28                  222 	.byte	40
   00DD E8                  223 	.byte	-24
   00DE FF                  224 	.byte	-1
   00DF 28                  225 	.byte	40
   00E0 18                  226 	.byte	24
   00E1 FF                  227 	.byte	-1
   00E2 00                  228 	.byte	0
   00E3 18                  229 	.byte	24
   00E4 01                  230 	.byte	1
   00E5 00                  231 	.byte	0
   00E6 00                  232 	.byte	0
                            233 	.globl _vectors_tower_lvl_6
   00E7                     234 _vectors_tower_lvl_6:
   00E7 00                  235 	.byte	0
   00E8 50                  236 	.byte	80
   00E9 00                  237 	.byte	0
   00EA FF                  238 	.byte	-1
   00EB 00                  239 	.byte	0
   00EC 30                  240 	.byte	48
   00ED FF                  241 	.byte	-1
   00EE B0                  242 	.byte	-80
   00EF 30                  243 	.byte	48
   00F0 FF                  244 	.byte	-1
   00F1 B0                  245 	.byte	-80
   00F2 D0                  246 	.byte	-48
   00F3 FF                  247 	.byte	-1
   00F4 00                  248 	.byte	0
   00F5 A0                  249 	.byte	-96
   00F6 FF                  250 	.byte	-1
   00F7 50                  251 	.byte	80
   00F8 D0                  252 	.byte	-48
   00F9 FF                  253 	.byte	-1
   00FA 50                  254 	.byte	80
   00FB 30                  255 	.byte	48
   00FC FF                  256 	.byte	-1
   00FD 00                  257 	.byte	0
   00FE 30                  258 	.byte	48
   00FF 01                  259 	.byte	1
   0100 00                  260 	.byte	0
   0101 00                  261 	.byte	0
                            262 	.globl _tower
                            263 	.area .data
   0000                     264 _tower:
   0000 00 00               265 	.word	0	;skip space 11
   0002 00 00               266 	.word	0	;skip space 9
   0004 00 00               267 	.word	0	;skip space 7
   0006 00 00               268 	.word	0	;skip space 5
   0008 00 00               269 	.word	0	;skip space 3
   000A 00                  270 	.byte	0	;skip space
   000B                     271 _RotationDelay.3290:
   000B 1E                  272 	.byte	30
                            273 	.area .text
                            274 	.globl _draw_tower
   0102                     275 _draw_tower:
   0102 34 40         [ 6]  276 	pshs	u
   0104 32 70         [ 5]  277 	leas	-16,s
   0106 BD 00 00      [ 8]  278 	jsr	___Reset0Ref
   0109 C6 7F         [ 2]  279 	ldb	#127
   010B D7 00         [ 4]  280 	stb	*_dp_VIA_t1_cnt_lo
   010D 6F E2         [ 8]  281 	clr	,-s
   010F 5F            [ 2]  282 	clrb
   0110 BD 00 00      [ 8]  283 	jsr	__Moveto_d
   0113 32 61         [ 5]  284 	leas	1,s
   0115 C6 22         [ 2]  285 	ldb	#34
   0117 D7 00         [ 4]  286 	stb	*_dp_VIA_t1_cnt_lo
   0119 F6 00 01      [ 5]  287 	ldb	_tower+1
   011C E7 63         [ 5]  288 	stb	3,s
                            289 	; ldb	3,s	; optimization 5
   011E C1 05         [ 2]  290 	cmpb	#5	;cmpqi:
   0120 10 22 00 8E   [ 6]  291 	lbhi	L2
   0124 E6 63         [ 5]  292 	ldb	3,s
   0126 4F            [ 2]  293 	clra		;zero_extendqihi: R:b -> R:d
   0127 ED E4         [ 5]  294 	std	,s
                            295 	; ldd	,s	; optimization 5
   0129 58            [ 2]  296 	aslb
   012A 49            [ 2]  297 	rola
   012B CE 01 34      [ 3]  298 	ldu	#L9
   012E 30 CB         [ 8]  299 	leax	d,u
   0130 AE 84         [ 5]  300 	ldx	,x
   0132 6E 84         [ 3]  301 	jmp	,x
   0134                     302 L9:
   0134 01 40               303 	.word L3
   0136 01 5D               304 	.word L4
   0138 01 79               305 	.word L5
   013A 01 95               306 	.word L6
   013C 01 CD               307 	.word L10
   013E 01 CD               308 	.word L10
   0140                     309 L3:
   0140 F6 00 03      [ 5]  310 	ldb	_tower+3
   0143 E7 6B         [ 5]  311 	stb	11,s
   0145 8E 00 3C      [ 3]  312 	ldx	#_rotated_tower1
   0148 34 10         [ 6]  313 	pshs	x
   014A 8E 00 24      [ 3]  314 	ldx	#_vectors_tower_lvl_1
   014D E6 6D         [ 5]  315 	ldb	13,s
   014F BD 00 00      [ 8]  316 	jsr	__Rot_VL_Mode
   0152 32 62         [ 5]  317 	leas	2,s
   0154 8E 00 3C      [ 3]  318 	ldx	#_rotated_tower1
   0157 BD 00 00      [ 8]  319 	jsr	___Draw_VLp
   015A 7E 01 CD      [ 4]  320 	jmp	L10
   015D                     321 L4:
   015D F6 00 03      [ 5]  322 	ldb	_tower+3
   0160 E7 6C         [ 5]  323 	stb	12,s
   0162 8E 00 5A      [ 3]  324 	ldx	#_rotated_tower2
   0165 34 10         [ 6]  325 	pshs	x
   0167 8E 00 42      [ 3]  326 	ldx	#_vectors_tower_lvl_2
   016A E6 6E         [ 5]  327 	ldb	14,s
   016C BD 00 00      [ 8]  328 	jsr	__Rot_VL_Mode
   016F 32 62         [ 5]  329 	leas	2,s
   0171 8E 00 5A      [ 3]  330 	ldx	#_rotated_tower2
   0174 BD 00 00      [ 8]  331 	jsr	___Draw_VLp
   0177 20 54         [ 3]  332 	bra	L10
   0179                     333 L5:
   0179 F6 00 03      [ 5]  334 	ldb	_tower+3
   017C E7 6D         [ 5]  335 	stb	13,s
   017E 8E 00 81      [ 3]  336 	ldx	#_rotated_tower3
   0181 34 10         [ 6]  337 	pshs	x
   0183 8E 00 69      [ 3]  338 	ldx	#_vectors_tower_lvl_3
   0186 E6 6F         [ 5]  339 	ldb	15,s
   0188 BD 00 00      [ 8]  340 	jsr	__Rot_VL_Mode
   018B 32 62         [ 5]  341 	leas	2,s
   018D 8E 00 81      [ 3]  342 	ldx	#_rotated_tower3
   0190 BD 00 00      [ 8]  343 	jsr	___Draw_VLp
   0193 20 38         [ 3]  344 	bra	L10
   0195                     345 L6:
   0195 F6 00 03      [ 5]  346 	ldb	_tower+3
   0198 E7 6E         [ 5]  347 	stb	14,s
   019A 8E 00 AE      [ 3]  348 	ldx	#_rotated_tower4
   019D 34 10         [ 6]  349 	pshs	x
   019F 8E 00 96      [ 3]  350 	ldx	#_vectors_tower_lvl_4
   01A2 E6 E8 10      [ 5]  351 	ldb	16,s
   01A5 BD 00 00      [ 8]  352 	jsr	__Rot_VL_Mode
   01A8 32 62         [ 5]  353 	leas	2,s
   01AA 8E 00 AE      [ 3]  354 	ldx	#_rotated_tower4
   01AD BD 00 00      [ 8]  355 	jsr	___Draw_VLp
   01B0 20 1B         [ 3]  356 	bra	L10
   01B2                     357 L2:
   01B2 F6 00 03      [ 5]  358 	ldb	_tower+3
   01B5 E7 6F         [ 5]  359 	stb	15,s
   01B7 8E 00 3C      [ 3]  360 	ldx	#_rotated_tower1
   01BA 34 10         [ 6]  361 	pshs	x
   01BC 8E 00 24      [ 3]  362 	ldx	#_vectors_tower_lvl_1
   01BF E6 E8 11      [ 5]  363 	ldb	17,s
   01C2 BD 00 00      [ 8]  364 	jsr	__Rot_VL_Mode
   01C5 32 62         [ 5]  365 	leas	2,s
   01C7 8E 00 3C      [ 3]  366 	ldx	#_rotated_tower1
   01CA BD 00 00      [ 8]  367 	jsr	___Draw_VLp
   01CD                     368 L10:
   01CD F6 00 0B      [ 5]  369 	ldb	_RotationDelay.3290
                            370 	; tstb	; optimization 6
   01D0 10 26 00 F5   [ 6]  371 	lbne	L11
   01D4 C6 1E         [ 2]  372 	ldb	#30
   01D6 F7 00 0B      [ 5]  373 	stb	_RotationDelay.3290
   01D9 F6 00 03      [ 5]  374 	ldb	_tower+3
   01DC CB 04         [ 2]  375 	addb	#4
   01DE F7 00 03      [ 5]  376 	stb	_tower+3
                            377 	; ldb	_tower+3	; optimization 5
   01E1 C1 3E         [ 2]  378 	cmpb	#62	;cmpqi:
   01E3 23 03         [ 3]  379 	bls	L12
   01E5 7F 00 03      [ 7]  380 	clr	_tower+3
   01E8                     381 L12:
   01E8 F6 00 01      [ 5]  382 	ldb	_tower+1
   01EB E7 64         [ 5]  383 	stb	4,s
                            384 	; ldb	4,s	; optimization 5
   01ED C1 05         [ 2]  385 	cmpb	#5	;cmpqi:
   01EF 10 22 00 D6   [ 6]  386 	lbhi	L11
   01F3 E6 64         [ 5]  387 	ldb	4,s
   01F5 4F            [ 2]  388 	clra		;zero_extendqihi: R:b -> R:d
   01F6 ED E4         [ 5]  389 	std	,s
                            390 	; ldd	,s	; optimization 5
   01F8 58            [ 2]  391 	aslb
   01F9 49            [ 2]  392 	rola
   01FA CE 02 03      [ 3]  393 	ldu	#L19
   01FD 30 CB         [ 8]  394 	leax	d,u
   01FF AE 84         [ 5]  395 	ldx	,x
   0201 6E 84         [ 3]  396 	jmp	,x
   0203                     397 L19:
   0203 02 AA               398 	.word L13
   0205 02 8B               399 	.word L14
   0207 02 6C               400 	.word L15
   0209 02 4D               401 	.word L16
   020B 02 2E               402 	.word L17
   020D 02 0F               403 	.word L18
   020F                     404 L18:
   020F F6 00 0A      [ 5]  405 	ldb	_tower+10
   0212 E7 62         [ 5]  406 	stb	2,s
   0214 F6 00 03      [ 5]  407 	ldb	_tower+3
   0217 E7 65         [ 5]  408 	stb	5,s
   0219 E6 62         [ 5]  409 	ldb	2,s
   021B EB 65         [ 5]  410 	addb	5,s
   021D C1 3E         [ 2]  411 	cmpb	#62	;cmpqi:
   021F 23 05         [ 3]  412 	bls	L20
   0221 7F 00 0A      [ 7]  413 	clr	_tower+10
   0224 20 08         [ 3]  414 	bra	L17
   0226                     415 L20:
   0226 F6 00 0A      [ 5]  416 	ldb	_tower+10
   0229 CB 04         [ 2]  417 	addb	#4
   022B F7 00 0A      [ 5]  418 	stb	_tower+10
   022E                     419 L17:
   022E F6 00 09      [ 5]  420 	ldb	_tower+9
   0231 E7 62         [ 5]  421 	stb	2,s
   0233 F6 00 03      [ 5]  422 	ldb	_tower+3
   0236 E7 66         [ 5]  423 	stb	6,s
   0238 E6 62         [ 5]  424 	ldb	2,s
   023A EB 66         [ 5]  425 	addb	6,s
   023C C1 3E         [ 2]  426 	cmpb	#62	;cmpqi:
   023E 23 05         [ 3]  427 	bls	L21
   0240 7F 00 09      [ 7]  428 	clr	_tower+9
   0243 20 08         [ 3]  429 	bra	L16
   0245                     430 L21:
   0245 F6 00 09      [ 5]  431 	ldb	_tower+9
   0248 CB 04         [ 2]  432 	addb	#4
   024A F7 00 09      [ 5]  433 	stb	_tower+9
   024D                     434 L16:
   024D F6 00 08      [ 5]  435 	ldb	_tower+8
   0250 E7 62         [ 5]  436 	stb	2,s
   0252 F6 00 03      [ 5]  437 	ldb	_tower+3
   0255 E7 67         [ 5]  438 	stb	7,s
   0257 E6 62         [ 5]  439 	ldb	2,s
   0259 EB 67         [ 5]  440 	addb	7,s
   025B C1 3E         [ 2]  441 	cmpb	#62	;cmpqi:
   025D 23 05         [ 3]  442 	bls	L22
   025F 7F 00 08      [ 7]  443 	clr	_tower+8
   0262 20 08         [ 3]  444 	bra	L15
   0264                     445 L22:
   0264 F6 00 08      [ 5]  446 	ldb	_tower+8
   0267 CB 04         [ 2]  447 	addb	#4
   0269 F7 00 08      [ 5]  448 	stb	_tower+8
   026C                     449 L15:
   026C F6 00 07      [ 5]  450 	ldb	_tower+7
   026F E7 62         [ 5]  451 	stb	2,s
   0271 F6 00 03      [ 5]  452 	ldb	_tower+3
   0274 E7 68         [ 5]  453 	stb	8,s
   0276 E6 62         [ 5]  454 	ldb	2,s
   0278 EB 68         [ 5]  455 	addb	8,s
   027A C1 3E         [ 2]  456 	cmpb	#62	;cmpqi:
   027C 23 05         [ 3]  457 	bls	L23
   027E 7F 00 07      [ 7]  458 	clr	_tower+7
   0281 20 08         [ 3]  459 	bra	L14
   0283                     460 L23:
   0283 F6 00 07      [ 5]  461 	ldb	_tower+7
   0286 CB 04         [ 2]  462 	addb	#4
   0288 F7 00 07      [ 5]  463 	stb	_tower+7
   028B                     464 L14:
   028B F6 00 06      [ 5]  465 	ldb	_tower+6
   028E E7 62         [ 5]  466 	stb	2,s
   0290 F6 00 03      [ 5]  467 	ldb	_tower+3
   0293 E7 69         [ 5]  468 	stb	9,s
   0295 E6 62         [ 5]  469 	ldb	2,s
   0297 EB 69         [ 5]  470 	addb	9,s
   0299 C1 3E         [ 2]  471 	cmpb	#62	;cmpqi:
   029B 23 05         [ 3]  472 	bls	L24
   029D 7F 00 06      [ 7]  473 	clr	_tower+6
   02A0 20 08         [ 3]  474 	bra	L13
   02A2                     475 L24:
   02A2 F6 00 06      [ 5]  476 	ldb	_tower+6
   02A5 CB 04         [ 2]  477 	addb	#4
   02A7 F7 00 06      [ 5]  478 	stb	_tower+6
   02AA                     479 L13:
   02AA F6 00 05      [ 5]  480 	ldb	_tower+5
   02AD E7 62         [ 5]  481 	stb	2,s
   02AF F6 00 03      [ 5]  482 	ldb	_tower+3
   02B2 E7 6A         [ 5]  483 	stb	10,s
   02B4 E6 62         [ 5]  484 	ldb	2,s
   02B6 EB 6A         [ 5]  485 	addb	10,s
   02B8 C1 3E         [ 2]  486 	cmpb	#62	;cmpqi:
   02BA 23 05         [ 3]  487 	bls	L25
   02BC 7F 00 05      [ 7]  488 	clr	_tower+5
   02BF 20 08         [ 3]  489 	bra	L11
   02C1                     490 L25:
   02C1 F6 00 05      [ 5]  491 	ldb	_tower+5
   02C4 CB 04         [ 2]  492 	addb	#4
   02C6 F7 00 05      [ 5]  493 	stb	_tower+5
   02C9                     494 L11:
   02C9 F6 00 0B      [ 5]  495 	ldb	_RotationDelay.3290
   02CC 5A            [ 2]  496 	decb
   02CD F7 00 0B      [ 5]  497 	stb	_RotationDelay.3290
   02D0 32 E8 10      [ 5]  498 	leas	16,s
   02D3 35 C0         [ 7]  499 	puls	u,pc
                            500 	.globl _init_tower
   02D5                     501 _init_tower:
   02D5 C6 01         [ 2]  502 	ldb	#1
   02D7 F7 00 00      [ 5]  503 	stb	_tower
   02DA 5F            [ 2]  504 	clrb
   02DB BD 02 EA      [ 8]  505 	jsr	_set_tower
   02DE 7F 00 03      [ 7]  506 	clr	_tower+3
   02E1 7F 00 02      [ 7]  507 	clr	_tower+2
   02E4 C6 64         [ 2]  508 	ldb	#100
   02E6 F7 00 04      [ 5]  509 	stb	_tower+4
   02E9 39            [ 5]  510 	rts
                            511 	.globl _set_tower
   02EA                     512 _set_tower:
   02EA 34 40         [ 6]  513 	pshs	u
   02EC 32 7C         [ 5]  514 	leas	-4,s
   02EE E7 63         [ 5]  515 	stb	3,s
                            516 	; ldb	3,s	; optimization 5
   02F0 F7 00 01      [ 5]  517 	stb	_tower+1
   02F3 7F 00 03      [ 7]  518 	clr	_tower+3
   02F6 7F 00 02      [ 7]  519 	clr	_tower+2
   02F9 C6 64         [ 2]  520 	ldb	#100
   02FB F7 00 04      [ 5]  521 	stb	_tower+4
   02FE F6 00 01      [ 5]  522 	ldb	_tower+1
   0301 E7 62         [ 5]  523 	stb	2,s
                            524 	; ldb	2,s	; optimization 5
   0303 C1 05         [ 2]  525 	cmpb	#5	;cmpqi:
   0305 10 22 01 11   [ 6]  526 	lbhi	L38
   0309 E6 62         [ 5]  527 	ldb	2,s
   030B 4F            [ 2]  528 	clra		;zero_extendqihi: R:b -> R:d
   030C ED E4         [ 5]  529 	std	,s
                            530 	; ldd	,s	; optimization 5
   030E 58            [ 2]  531 	aslb
   030F 49            [ 2]  532 	rola
   0310 CE 03 19      [ 3]  533 	ldu	#L37
   0313 30 CB         [ 8]  534 	leax	d,u
   0315 AE 84         [ 5]  535 	ldx	,x
   0317 6E 84         [ 3]  536 	jmp	,x
   0319                     537 L37:
   0319 03 25               538 	.word L31
   031B 03 47               539 	.word L32
   031D 03 6C               540 	.word L33
   031F 03 94               541 	.word L34
   0321 03 BF               542 	.word L35
   0323 03 EC               543 	.word L36
   0325                     544 L31:
   0325 F6 00 03      [ 5]  545 	ldb	_tower+3
   0328 F7 00 05      [ 5]  546 	stb	_tower+5
   032B C6 64         [ 2]  547 	ldb	#100
   032D F7 00 06      [ 5]  548 	stb	_tower+6
   0330 C6 64         [ 2]  549 	ldb	#100
   0332 F7 00 07      [ 5]  550 	stb	_tower+7
   0335 C6 64         [ 2]  551 	ldb	#100
   0337 F7 00 08      [ 5]  552 	stb	_tower+8
   033A C6 64         [ 2]  553 	ldb	#100
   033C F7 00 09      [ 5]  554 	stb	_tower+9
   033F C6 64         [ 2]  555 	ldb	#100
   0341 F7 00 0A      [ 5]  556 	stb	_tower+10
   0344 7E 04 1A      [ 4]  557 	jmp	L38
   0347                     558 L32:
   0347 F6 00 03      [ 5]  559 	ldb	_tower+3
   034A F7 00 05      [ 5]  560 	stb	_tower+5
   034D F6 00 03      [ 5]  561 	ldb	_tower+3
   0350 CB 20         [ 2]  562 	addb	#32
   0352 F7 00 06      [ 5]  563 	stb	_tower+6
   0355 C6 64         [ 2]  564 	ldb	#100
   0357 F7 00 07      [ 5]  565 	stb	_tower+7
   035A C6 64         [ 2]  566 	ldb	#100
   035C F7 00 08      [ 5]  567 	stb	_tower+8
   035F C6 64         [ 2]  568 	ldb	#100
   0361 F7 00 09      [ 5]  569 	stb	_tower+9
   0364 C6 64         [ 2]  570 	ldb	#100
   0366 F7 00 0A      [ 5]  571 	stb	_tower+10
   0369 7E 04 1A      [ 4]  572 	jmp	L38
   036C                     573 L33:
   036C F6 00 03      [ 5]  574 	ldb	_tower+3
   036F F7 00 05      [ 5]  575 	stb	_tower+5
   0372 F6 00 03      [ 5]  576 	ldb	_tower+3
   0375 CB 10         [ 2]  577 	addb	#16
   0377 F7 00 06      [ 5]  578 	stb	_tower+6
   037A F6 00 03      [ 5]  579 	ldb	_tower+3
   037D CB 20         [ 2]  580 	addb	#32
   037F F7 00 07      [ 5]  581 	stb	_tower+7
   0382 C6 64         [ 2]  582 	ldb	#100
   0384 F7 00 08      [ 5]  583 	stb	_tower+8
   0387 C6 64         [ 2]  584 	ldb	#100
   0389 F7 00 09      [ 5]  585 	stb	_tower+9
   038C C6 64         [ 2]  586 	ldb	#100
   038E F7 00 0A      [ 5]  587 	stb	_tower+10
   0391 7E 04 1A      [ 4]  588 	jmp	L38
   0394                     589 L34:
   0394 F6 00 03      [ 5]  590 	ldb	_tower+3
   0397 F7 00 05      [ 5]  591 	stb	_tower+5
   039A F6 00 03      [ 5]  592 	ldb	_tower+3
   039D CB 10         [ 2]  593 	addb	#16
   039F F7 00 06      [ 5]  594 	stb	_tower+6
   03A2 F6 00 03      [ 5]  595 	ldb	_tower+3
   03A5 CB 20         [ 2]  596 	addb	#32
   03A7 F7 00 07      [ 5]  597 	stb	_tower+7
   03AA F6 00 03      [ 5]  598 	ldb	_tower+3
   03AD CB 30         [ 2]  599 	addb	#48
   03AF F7 00 08      [ 5]  600 	stb	_tower+8
   03B2 C6 64         [ 2]  601 	ldb	#100
   03B4 F7 00 09      [ 5]  602 	stb	_tower+9
   03B7 C6 64         [ 2]  603 	ldb	#100
   03B9 F7 00 0A      [ 5]  604 	stb	_tower+10
   03BC 7E 04 1A      [ 4]  605 	jmp	L38
   03BF                     606 L35:
   03BF F6 00 03      [ 5]  607 	ldb	_tower+3
   03C2 F7 00 05      [ 5]  608 	stb	_tower+5
   03C5 F6 00 03      [ 5]  609 	ldb	_tower+3
   03C8 CB 0B         [ 2]  610 	addb	#11
   03CA F7 00 06      [ 5]  611 	stb	_tower+6
   03CD F6 00 03      [ 5]  612 	ldb	_tower+3
   03D0 CB 15         [ 2]  613 	addb	#21
   03D2 F7 00 07      [ 5]  614 	stb	_tower+7
   03D5 F6 00 03      [ 5]  615 	ldb	_tower+3
   03D8 CB 20         [ 2]  616 	addb	#32
   03DA F7 00 08      [ 5]  617 	stb	_tower+8
   03DD F6 00 03      [ 5]  618 	ldb	_tower+3
   03E0 CB 2B         [ 2]  619 	addb	#43
   03E2 F7 00 09      [ 5]  620 	stb	_tower+9
   03E5 C6 64         [ 2]  621 	ldb	#100
   03E7 F7 00 0A      [ 5]  622 	stb	_tower+10
   03EA 20 2E         [ 3]  623 	bra	L38
   03EC                     624 L36:
   03EC F6 00 03      [ 5]  625 	ldb	_tower+3
   03EF F7 00 05      [ 5]  626 	stb	_tower+5
   03F2 F6 00 03      [ 5]  627 	ldb	_tower+3
   03F5 CB 0B         [ 2]  628 	addb	#11
   03F7 F7 00 06      [ 5]  629 	stb	_tower+6
   03FA F6 00 03      [ 5]  630 	ldb	_tower+3
   03FD CB 15         [ 2]  631 	addb	#21
   03FF F7 00 07      [ 5]  632 	stb	_tower+7
   0402 F6 00 03      [ 5]  633 	ldb	_tower+3
   0405 CB 20         [ 2]  634 	addb	#32
   0407 F7 00 08      [ 5]  635 	stb	_tower+8
   040A F6 00 03      [ 5]  636 	ldb	_tower+3
   040D CB 2B         [ 2]  637 	addb	#43
   040F F7 00 09      [ 5]  638 	stb	_tower+9
   0412 F6 00 03      [ 5]  639 	ldb	_tower+3
   0415 CB 35         [ 2]  640 	addb	#53
   0417 F7 00 0A      [ 5]  641 	stb	_tower+10
   041A                     642 L38:
   041A 32 64         [ 5]  643 	leas	4,s
   041C 35 C0         [ 7]  644 	puls	u,pc
                            645 	.area .data
   000C                     646 _rate.3431:
   000C 32                  647 	.byte	50
                            648 	.area .text
                            649 	.globl _tower_shot
   041E                     650 _tower_shot:
   041E 32 7E         [ 5]  651 	leas	-2,s
   0420 F6 00 02      [ 5]  652 	ldb	_tower+2
                            653 	; tstb	; optimization 6
   0423 26 09         [ 3]  654 	bne	L40
   0425 F6 00 0C      [ 5]  655 	ldb	_rate.3431
   0428 5A            [ 2]  656 	decb
   0429 F7 00 0C      [ 5]  657 	stb	_rate.3431
   042C 20 20         [ 3]  658 	bra	L41
   042E                     659 L40:
   042E F6 00 02      [ 5]  660 	ldb	_tower+2
   0431 C1 01         [ 2]  661 	cmpb	#1	;cmpqi:
   0433 26 0A         [ 3]  662 	bne	L42
   0435 F6 00 0C      [ 5]  663 	ldb	_rate.3431
   0438 CB FE         [ 2]  664 	addb	#-2
   043A F7 00 0C      [ 5]  665 	stb	_rate.3431
   043D 20 0F         [ 3]  666 	bra	L41
   043F                     667 L42:
   043F F6 00 02      [ 5]  668 	ldb	_tower+2
   0442 C1 02         [ 2]  669 	cmpb	#2	;cmpqi:
   0444 26 08         [ 3]  670 	bne	L41
   0446 F6 00 0C      [ 5]  671 	ldb	_rate.3431
   0449 CB FB         [ 2]  672 	addb	#-5
   044B F7 00 0C      [ 5]  673 	stb	_rate.3431
   044E                     674 L41:
   044E 6F E4         [ 6]  675 	clr	,s
   0450 6F 61         [ 7]  676 	clr	1,s
   0452 F6 00 0C      [ 5]  677 	ldb	_rate.3431
                            678 	; tstb	; optimization 6
   0455 10 2E 00 59   [ 6]  679 	lbgt	L44
   0459 F6 00 05      [ 5]  680 	ldb	_tower+5
   045C 34 04         [ 6]  681 	pshs	b
   045E C6 01         [ 2]  682 	ldb	#1
   0460 AE 61         [ 6]  683 	ldx	1,s
   0462 BD 00 00      [ 8]  684 	jsr	_fire_bullet
   0465 32 61         [ 5]  685 	leas	1,s
   0467 F6 00 06      [ 5]  686 	ldb	_tower+6
   046A 34 04         [ 6]  687 	pshs	b
   046C C6 01         [ 2]  688 	ldb	#1
   046E AE 61         [ 6]  689 	ldx	1,s
   0470 BD 00 00      [ 8]  690 	jsr	_fire_bullet
   0473 32 61         [ 5]  691 	leas	1,s
   0475 F6 00 07      [ 5]  692 	ldb	_tower+7
   0478 34 04         [ 6]  693 	pshs	b
   047A C6 01         [ 2]  694 	ldb	#1
   047C AE 61         [ 6]  695 	ldx	1,s
   047E BD 00 00      [ 8]  696 	jsr	_fire_bullet
   0481 32 61         [ 5]  697 	leas	1,s
   0483 F6 00 08      [ 5]  698 	ldb	_tower+8
   0486 34 04         [ 6]  699 	pshs	b
   0488 C6 01         [ 2]  700 	ldb	#1
   048A AE 61         [ 6]  701 	ldx	1,s
   048C BD 00 00      [ 8]  702 	jsr	_fire_bullet
   048F 32 61         [ 5]  703 	leas	1,s
   0491 F6 00 09      [ 5]  704 	ldb	_tower+9
   0494 34 04         [ 6]  705 	pshs	b
   0496 C6 01         [ 2]  706 	ldb	#1
   0498 AE 61         [ 6]  707 	ldx	1,s
   049A BD 00 00      [ 8]  708 	jsr	_fire_bullet
   049D 32 61         [ 5]  709 	leas	1,s
   049F F6 00 0A      [ 5]  710 	ldb	_tower+10
   04A2 34 04         [ 6]  711 	pshs	b
   04A4 C6 01         [ 2]  712 	ldb	#1
   04A6 AE 61         [ 6]  713 	ldx	1,s
   04A8 BD 00 00      [ 8]  714 	jsr	_fire_bullet
   04AB 32 61         [ 5]  715 	leas	1,s
   04AD C6 32         [ 2]  716 	ldb	#50
   04AF F7 00 0C      [ 5]  717 	stb	_rate.3431
   04B2                     718 L44:
   04B2 32 62         [ 5]  719 	leas	2,s
   04B4 39            [ 5]  720 	rts
                            721 	.globl _handle_tower
   04B5                     722 _handle_tower:
   04B5 BD 04 1E      [ 8]  723 	jsr	_tower_shot
   04B8 BD 01 02      [ 8]  724 	jsr	_draw_tower
   04BB F6 00 00      [ 5]  725 	ldb	_tower
                            726 	; tstb	; optimization 6
   04BE 26 05         [ 3]  727 	bne	L47
   04C0 C6 01         [ 2]  728 	ldb	#1
   04C2 F7 00 03      [ 5]  729 	stb	_current_wave+3
   04C5                     730 L47:
   04C5 39            [ 5]  731 	rts
                            732 	.area .bss
                            733 	.globl	_bullets
   0000                     734 _bullets:	.blkb	60
                            735 	.globl	_rotated_tower1
   003C                     736 _rotated_tower1:	.blkb	30
                            737 	.globl	_rotated_tower2
   005A                     738 _rotated_tower2:	.blkb	39
                            739 	.globl	_rotated_tower3
   0081                     740 _rotated_tower3:	.blkb	45
                            741 	.globl	_rotated_tower4
   00AE                     742 _rotated_tower4:	.blkb	54
ASxxxx Assembler V05.00  (Motorola 6809), page 1.
Hexidecimal [16-Bits]

Symbol Table

    .__.$$$.       =   2710 L   |     .__.ABS.       =   0000 G
    .__.CPU.       =   0000 L   |     .__.H$L.       =   0001 L
  2 L10                01CD R   |   2 L11                02C9 R
  2 L12                01E8 R   |   2 L13                02AA R
  2 L14                028B R   |   2 L15                026C R
  2 L16                024D R   |   2 L17                022E R
  2 L18                020F R   |   2 L19                0203 R
  2 L2                 01B2 R   |   2 L20                0226 R
  2 L21                0245 R   |   2 L22                0264 R
  2 L23                0283 R   |   2 L24                02A2 R
  2 L25                02C1 R   |   2 L3                 0140 R
  2 L31                0325 R   |   2 L32                0347 R
  2 L33                036C R   |   2 L34                0394 R
  2 L35                03BF R   |   2 L36                03EC R
  2 L37                0319 R   |   2 L38                041A R
  2 L4                 015D R   |   2 L40                042E R
  2 L41                044E R   |   2 L42                043F R
  2 L44                04B2 R   |   2 L47                04C5 R
  2 L5                 0179 R   |   2 L6                 0195 R
  2 L9                 0134 R   |   3 _RotationDelay     000B R
    __Moveto_d         **** GX  |     __Rot_VL_Mode      **** GX
    ___Draw_VLp        **** GX  |     ___Reset0Ref       **** GX
  4 _bullets           0000 GR  |     _current_wave      **** GX
    _dp_VIA_t1_cnt     **** GX  |   2 _draw_tower        0102 GR
    _fire_bullet       **** GX  |   2 _handle_tower      04B5 GR
  2 _init_tower        02D5 GR  |   3 _rate.3431         000C R
  4 _rotated_tower     003C GR  |   4 _rotated_tower     005A GR
  4 _rotated_tower     0081 GR  |   4 _rotated_tower     00AE GR
  2 _set_tower         02EA GR  |   3 _tower             0000 GR
  2 _tower_shot        041E GR  |   2 _towercost         0000 GR
  2 _vectors_tower     0024 GR  |   2 _vectors_tower     0042 GR
  2 _vectors_tower     0069 GR  |   2 _vectors_tower     0096 GR
  2 _vectors_tower     00CC GR  |   2 _vectors_tower     00E7 GR

ASxxxx Assembler V05.00  (Motorola 6809), page 2.
Hexidecimal [16-Bits]

Area Table

[_CSEG]
   0 _CODE            size    0   flags C080
   2 .text            size  4C6   flags  100
   3 .data            size    D   flags  100
   4 .bss             size   E4   flags    0
[_DSEG]
   1 _DATA            size    0   flags C0C0

